(lp0
(I66
I30
I530
I12
I16
I12
F236.87794494628906
tp1
a(I68
I32
I530
I12
I16
I12
F236.9428253173828
tp2
a(I68
I32
I615
I12
I16
I12
F237.0593719482422
tp3
a(I68
I32
I530
I12
I16
I12
F237.08570861816406
tp4
a(I64
I34
I615
I12
I16
I12
F237.11685180664062
tp5
a(I68
I32
I530
I12
I16
I12
F237.15713500976562
tp6
a(I66
I30
I530
I12
I16
I12
F237.21669006347656
tp7
a(I68
I32
I530
I12
I16
I12
F237.24977111816406
tp8
a(I70
I32
I530
I12
I16
I12
F237.36209106445312
tp9
a(I68
I32
I530
I12
I16
I12
F237.40992736816406
tp10
a(I622
I116
I1134
I12
I16
I12
F237.43429565429688
tp11
a(I68
I30
I530
I12
I16
I12
F237.4592742919922
tp12
a(I68
I32
I530
I12
I16
I12
F237.49118041992188
tp13
a(I68
I34
I706
I12
I16
I12
F237.52960205078125
tp14
a(I68
I36
I706
I12
I16
I12
F237.5567626953125
tp15
a(I68
I34
I615
I12
I16
I12
F237.5909423828125
tp16
a(I68
I30
I452
I12
I16
I12
F237.6251983642578
tp17
a(I72
I34
I706
I12
I16
I12
F237.65541076660156
tp18
a(I630
I250
I530
I12
I16
I12
F237.68954467773438
tp19
a(I74
I34
I706
I12
I16
I12
F237.7205352783203
tp20
a(I78
I34
I615
I12
I16
I12
F237.75442504882812
tp21
a(I82
I34
I530
I12
I16
I12
F237.78256225585938
tp22
a(I90
I40
I530
I12
I16
I12
F237.81507873535156
tp23
a(I92
I36
I530
I12
I16
I12
F237.83116149902344
tp24
a(I96
I36
I530
I12
I16
I12
F237.85345458984375
tp25
a(I104
I36
I615
I12
I16
I12
F237.8968963623047
tp26
a(I110
I38
I530
I12
I16
I12
F237.9315948486328
tp27
a(I114
I40
I706
I12
I16
I12
F237.96078491210938
tp28
a(I122
I44
I706
I12
I16
I12
F237.99671936035156
tp29
a(I126
I42
I804
I12
I16
I12
F238.02777099609375
tp30
a(I132
I42
I530
I12
I16
I12
F238.05677795410156
tp31
a(I138
I46
I530
I12
I16
I12
F238.0909423828125
tp32
a(I142
I46
I615
I12
I16
I12
F238.12738037109375
tp33
a(I146
I50
I530
I12
I16
I12
F238.15480041503906
tp34
a(I154
I50
I615
I12
I16
I12
F238.18601989746094
tp35
a(I158
I52
I706
I12
I16
I12
F238.20387268066406
tp36
a(I164
I52
I530
I12
I16
I12
F238.25173950195312
tp37
a(I172
I56
I615
I12
I16
I12
F238.2662811279297
tp38
a(I176
I56
I706
I12
I16
I12
F238.2998809814453
tp39
a(I182
I58
I530
I12
I16
I12
F238.33221435546875
tp40
a(I186
I60
I615
I12
I16
I12
F238.3660430908203
tp41
a(I194
I62
I615
I12
I16
I12
F238.39974975585938
tp42
a(I200
I64
I615
I12
I16
I12
F238.42996215820312
tp43
a(I202
I66
I615
I12
I16
I12
F238.46206665039062
tp44
a(I206
I68
I530
I12
I16
I12
F238.49905395507812
tp45
a(I212
I72
I804
I12
I16
I12
F238.52676391601562
tp46
a(I218
I74
I706
I12
I16
I12
F238.55746459960938
tp47
a(I226
I74
I615
I12
I16
I12
F238.59669494628906
tp48
a(I224
I74
I530
I12
I16
I12
F238.60662841796875
tp49
a(I234
I78
I530
I12
I16
I12
F238.6561279296875
tp50
a(I240
I78
I804
I12
I16
I12
F238.6741485595703
tp51
a(I244
I80
I615
I12
I16
I12
F238.70362854003906
tp52
a(I248
I86
I530
I12
I16
I12
F238.73977661132812
tp53
a(I256
I90
I615
I12
I16
I12
F238.7734832763672
tp54
a(I264
I90
I706
I12
I16
I12
F238.8025360107422
tp55
a(I268
I92
I615
I12
I16
I12
F238.83511352539062
tp56
a(I270
I96
I804
I12
I16
I12
F238.87139892578125
tp57
a(I276
I96
I804
I12
I16
I12
F238.89959716796875
tp58
a(I282
I100
I804
I12
I16
I12
F238.9293670654297
tp59
a(I284
I102
I706
I12
I16
I12
F238.9691162109375
tp60
a(I288
I106
I706
I12
I16
I12
F238.99591064453125
tp61
a(I294
I104
I615
I12
I16
I12
F239.02708435058594
tp62
a(I298
I108
I706
I12
I16
I12
F239.0639190673828
tp63
a(I302
I110
I615
I12
I16
I12
F239.09552001953125
tp64
a(I308
I114
I706
I12
I16
I12
F239.12472534179688
tp65
a(I312
I116
I615
I12
I16
I12
F239.15892028808594
tp66
a(I320
I118
I530
I12
I16
I12
F239.17481994628906
tp67
a(I320
I118
I615
I12
I16
I12
F239.20680236816406
tp68
a(I328
I124
I615
I12
I16
I12
F239.2428741455078
tp69
a(I330
I126
I804
I12
I16
I12
F239.27114868164062
tp70
a(I334
I130
I804
I12
I16
I12
F239.30479431152344
tp71
a(I342
I132
I706
I12
I16
I12
F239.34091186523438
tp72
a(I344
I134
I907
I12
I16
I12
F239.3713836669922
tp73
a(I348
I138
I804
I12
I16
I12
F239.4013671875
tp74
a(I352
I140
I615
I12
I16
I12
F239.43319702148438
tp75
a(I358
I142
I706
I12
I16
I12
F239.4663848876953
tp76
a(I362
I146
I706
I12
I16
I12
F239.497802734375
tp77
a(I366
I148
I615
I12
I16
I12
F239.51705932617188
tp78
a(I368
I152
I804
I12
I16
I12
F239.56109619140625
tp79
a(I372
I152
I706
I12
I16
I12
F239.59323120117188
tp80
a(I374
I156
I706
I12
I16
I12
F239.62547302246094
tp81
a(I374
I160
I530
I12
I16
I12
F239.6573028564453
tp82
a(I378
I158
I706
I12
I16
I12
F239.67434692382812
tp83
a(I384
I162
I706
I12
I16
I12
F239.709228515625
tp84
a(I384
I166
I907
I12
I16
I12
F239.74166870117188
tp85
a(I390
I166
I615
I12
I16
I12
F239.77365112304688
tp86
a(I392
I168
I804
I12
I16
I12
F239.8079833984375
tp87
a(I398
I172
I530
I12
I16
I12
F239.84335327148438
tp88
a(I400
I174
I804
I12
I16
I12
F239.8740997314453
tp89
a(I404
I178
I615
I12
I16
I12
F239.9042510986328
tp90
a(I408
I182
I615
I12
I16
I12
F239.93922424316406
tp91
a(I410
I184
I530
I12
I16
I12
F239.96705627441406
tp92
a(I414
I188
I530
I12
I16
I12
F239.99887084960938
tp93
a(I414
I186
I706
I12
I16
I12
F240.01541137695312
tp94
a(I416
I190
I804
I12
I16
I12
F240.04531860351562
tp95
a(I420
I192
I706
I12
I16
I12
F240.07870483398438
tp96
a(I424
I194
I615
I12
I16
I12
F240.11114501953125
tp97
a(I426
I198
I706
I12
I16
I12
F240.1455078125
tp98
a(I428
I200
I706
I12
I16
I12
F240.1785430908203
tp99
a(I432
I202
I615
I12
I16
I12
F240.2109832763672
tp100
a(I434
I206
I804
I12
I16
I12
F240.241943359375
tp101
a(I434
I208
I907
I12
I16
I12
F240.27450561523438
tp102
a(I438
I208
I530
I12
I16
I12
F240.31056213378906
tp103
a(I436
I214
I530
I12
I16
I12
F240.3391571044922
tp104
a(I440
I214
I706
I12
I16
I12
F240.3753204345703
tp105
a(I442
I216
I706
I12
I16
I12
F240.38687133789062
tp106
a(I442
I220
I530
I12
I16
I12
F240.4350128173828
tp107
a(I448
I220
I706
I12
I16
I12
F240.46630859375
tp108
a(I448
I222
I804
I12
I16
I12
F240.48538208007812
tp109
a(I450
I224
I804
I12
I16
I12
F240.51748657226562
tp110
a(I452
I226
I804
I12
I16
I12
F240.55259704589844
tp111
a(I454
I228
I706
I12
I16
I12
F240.58448791503906
tp112
a(I458
I230
I530
I12
I16
I12
F240.6460723876953
tp113
a(I458
I232
I615
I12
I16
I12
F240.6835479736328
tp114
a(I462
I236
I615
I12
I16
I12
F240.7113037109375
tp115
a(I460
I236
I615
I12
I16
I12
F240.74139404296875
tp116
a(I464
I240
I706
I12
I16
I12
F240.7810821533203
tp117
a(I464
I244
I530
I12
I16
I12
F240.84144592285156
tp118
a(I466
I248
I615
I12
I16
I12
F240.87478637695312
tp119
a(I468
I250
I615
I12
I16
I12
F240.88693237304688
tp120
a(I470
I254
I615
I12
I16
I12
F240.9219970703125
tp121
a(I470
I254
I804
I12
I16
I12
F240.9549560546875
tp122
a(I474
I256
I706
I12
I16
I12
F240.98570251464844
tp123
a(I474
I256
I530
I12
I16
I12
F241.01699829101562
tp124
a(I474
I262
I804
I12
I16
I12
F241.05369567871094
tp125
a(I476
I264
I706
I12
I16
I12
F241.08270263671875
tp126
a(I480
I266
I615
I12
I16
I12
F241.11337280273438
tp127
a(I480
I270
I804
I12
I16
I12
F241.1526336669922
tp128
a(I482
I272
I706
I12
I16
I12
F241.17913818359375
tp129
a(I486
I274
I530
I12
I16
I12
F241.24798583984375
tp130
a(I488
I276
I530
I12
I16
I12
F241.2788543701172
tp131
a(I488
I278
I530
I12
I16
I12
F241.31039428710938
tp132
a(I488
I278
I615
I12
I16
I12
F241.3293914794922
tp133
a(I488
I276
I452
I12
I16
I12
F241.35818481445312
tp134
a(I488
I280
I530
I12
I16
I12
F241.39109802246094
tp135
a(I490
I282
I615
I12
I16
I12
F241.45526123046875
tp136
a(I492
I284
I706
I12
I16
I12
F241.48895263671875
tp137
a(I492
I284
I530
I12
I16
I12
F241.51914978027344
tp138
a(I494
I286
I706
I12
I16
I12
F241.5517578125
tp139
a(I492
I286
I530
I12
I16
I12
F241.5831756591797
tp140
a(I496
I288
I615
I12
I16
I12
F241.619384765625
tp141
a(I496
I290
I615
I12
I16
I12
F241.65228271484375
tp142
a(I496
I290
I706
I12
I16
I12
F241.68203735351562
tp143
a(I498
I288
I706
I12
I16
I12
F241.7139129638672
tp144
a(I500
I292
I530
I12
I16
I12
F241.73048400878906
tp145
a(I500
I290
I615
I12
I16
I12
F241.77859497070312
tp146
a(I500
I292
I615
I12
I16
I12
F241.81065368652344
tp147
a(I500
I292
I706
I12
I16
I12
F241.82749938964844
tp148
a(I502
I290
I706
I12
I16
I12
F241.85780334472656
tp149
a(I504
I292
I615
I12
I16
I12
F241.8932342529297
tp150
a(I506
I290
I615
I12
I16
I12
F241.92677307128906
tp151
a(I504
I290
I804
I12
I16
I12
F241.95838928222656
tp152
a(I506
I290
I615
I12
I16
I12
F241.9919891357422
tp153
a(I506
I290
I804
I12
I16
I12
F242.0243682861328
tp154
a(I508
I290
I615
I12
I16
I12
F242.05227661132812
tp155
a(I508
I290
I804
I12
I16
I12
F242.10379028320312
tp156
a(I508
I288
I804
I12
I16
I12
F242.12255859375
tp157
a(I512
I290
I530
I12
I16
I12
F242.1507568359375
tp158
a(I510
I288
I706
I12
I16
I12
F242.1822052001953
tp159
a(I512
I286
I530
I12
I16
I12
F242.21981811523438
tp160
a(I510
I288
I706
I12
I16
I12
F242.23263549804688
tp161
a(I512
I288
I706
I12
I16
I12
F242.2799072265625
tp162
a(I514
I286
I706
I12
I16
I12
F242.3133544921875
tp163
a(I514
I284
I706
I12
I16
I12
F242.3450164794922
tp164
a(I516
I284
I706
I12
I16
I12
F242.3756866455078
tp165
a(I518
I282
I615
I12
I16
I12
F242.40805053710938
tp166
a(I516
I282
I706
I12
I16
I12
F242.4258575439453
tp167
a(I516
I284
I706
I12
I16
I12
F242.459228515625
tp168
a(I518
I280
I615
I12
I16
I12
F242.49609375
tp169
a(I520
I280
I804
I12
I16
I12
F242.52316284179688
tp170
a(I520
I278
I706
I12
I16
I12
F242.55337524414062
tp171
a(I520
I276
I706
I12
I16
I12
F242.5935516357422
tp172
a(I520
I276
I615
I12
I16
I12
F242.61997985839844
tp173
a(I520
I274
I615
I12
I16
I12
F242.65109252929688
tp174
a(I522
I272
I615
I12
I16
I12
F242.68710327148438
tp175
a(I522
I270
I530
I12
I16
I12
F242.701904296875
tp176
a(I524
I268
I706
I12
I16
I12
F242.7494354248047
tp177
a(I522
I268
I530
I12
I16
I12
F242.76824951171875
tp178
a(I522
I266
I530
I12
I16
I12
F242.79681396484375
tp179
a(I526
I266
I706
I12
I16
I12
F242.83013916015625
tp180
a(I526
I262
I615
I12
I16
I12
F242.8673553466797
tp181
a(I526
I260
I530
I12
I16
I12
F242.89764404296875
tp182
a(I526
I258
I530
I12
I16
I12
F242.9256591796875
tp183
a(I528
I258
I530
I12
I16
I12
F242.96505737304688
tp184
a(I526
I256
I615
I12
I16
I12
F242.99131774902344
tp185
a(I528
I254
I615
I12
I16
I12
F243.0220184326172
tp186
a(I530
I252
I804
I12
I16
I12
F243.05906677246094
tp187
a(I530
I252
I706
I12
I16
I12
F243.09165954589844
tp188
a(I530
I250
I706
I12
I16
I12
F243.12149047851562
tp189
a(I528
I248
I530
I12
I16
I12
F243.14175415039062
tp190
a(I532
I248
I615
I12
I16
I12
F243.17071533203125
tp191
a(I534
I246
I615
I12
I16
I12
F243.20310974121094
tp192
a(I536
I246
I530
I12
I16
I12
F243.2351531982422
tp193
a(I534
I244
I530
I12
I16
I12
F243.26718139648438
tp194
a(I532
I244
I615
I12
I16
I12
F243.29739379882812
tp195
a(I534
I244
I706
I12
I16
I12
F243.33090209960938
tp196
a(I532
I244
I530
I12
I16
I12
F243.349853515625
tp197
a(I534
I242
I706
I12
I16
I12
F243.3875274658203
tp198
a(I536
I242
I615
I12
I16
I12
F243.41268920898438
tp199
a(I538
I240
I530
I12
I16
I12
F243.44375610351562
tp200
a(I536
I242
I706
I12
I16
I12
F243.47869873046875
tp201
a.