(lp0
(I48
I20
I907
I12
I16
I12
F290.6846618652344
tp1
a(I50
I20
I804
I12
I16
I12
F290.7227783203125
tp2
a(I52
I18
I706
I12
I16
I12
F290.74993896484375
tp3
a(I48
I20
I907
I12
I16
I12
F290.7820129394531
tp4
a(I52
I18
I706
I12
I16
I12
F290.7994689941406
tp5
a(I42
I32
I804
I12
I16
I12
F290.8319396972656
tp6
a(I48
I20
I706
I12
I16
I12
F290.86456298828125
tp7
a(I52
I18
I706
I12
I16
I12
F290.8980407714844
tp8
a(I48
I22
I907
I12
I16
I12
F290.9268798828125
tp9
a(I48
I20
I804
I12
I16
I12
F290.9608154296875
tp10
a(I48
I20
I1017
I12
I16
I12
F290.9958801269531
tp11
a(I50
I20
I804
I12
I16
I12
F291.02545166015625
tp12
a(I48
I20
I1017
I12
I16
I12
F291.09075927734375
tp13
a(I14
I452
I706
I12
I16
I12
F291.1282043457031
tp14
a(I50
I20
I804
I12
I16
I12
F291.153076171875
tp15
a(I42
I32
I1134
I12
I16
I12
F291.2190246582031
tp16
a(I14
I452
I706
I12
I16
I12
F291.2529296875
tp17
a(I46
I28
I907
I12
I16
I12
F291.2848205566406
tp18
a(I50
I20
I804
I12
I16
I12
F291.3016052246094
tp19
a(I50
I20
I907
I12
I16
I12
F291.33428955078125
tp20
a(I48
I20
I706
I12
I16
I12
F291.3983154296875
tp21
a(I48
I22
I1134
I12
I16
I12
F291.4281311035156
tp22
a(I48
I24
I907
I12
I16
I12
F291.4615478515625
tp23
a(I12
I450
I530
I12
I16
I12
F291.4969177246094
tp24
a(I48
I20
I1017
I12
I16
I12
F291.5275573730469
tp25
a(I50
I18
I706
I12
I16
I12
F291.56512451171875
tp26
a(I48
I20
I706
I12
I16
I12
F291.5932312011719
tp27
a(I52
I18
I804
I12
I16
I12
F291.62396240234375
tp28
a(I48
I20
I706
I12
I16
I12
F291.6733093261719
tp29
a(I46
I28
I907
I12
I16
I12
F291.7217102050781
tp30
a(I48
I20
I706
I12
I16
I12
F291.7521667480469
tp31
a(I52
I18
I706
I12
I16
I12
F291.77056884765625
tp32
a(I50
I20
I804
I12
I16
I12
F291.80352783203125
tp33
a(I628
I228
I452
I12
I16
I12
F291.8330383300781
tp34
a(I42
I32
I1134
I12
I16
I12
F291.8681640625
tp35
a(I48
I20
I907
I12
I16
I12
F291.9009704589844
tp36
a(I50
I18
I804
I12
I16
I12
F291.93255615234375
tp37
a(I48
I22
I907
I12
I16
I12
F291.9656677246094
tp38
a(I48
I20
I907
I12
I16
I12
F291.9966735839844
tp39
a(I660
I2
I1017
I12
I16
I12
F292.0271911621094
tp40
a(I50
I18
I706
I12
I16
I12
F292.06134033203125
tp41
a(I48
I20
I907
I12
I16
I12
F292.09246826171875
tp42
a(I50
I20
I804
I12
I16
I12
F292.11602783203125
tp43
a(I48
I24
I907
I12
I16
I12
F292.14801025390625
tp44
a(I12
I452
I706
I12
I16
I12
F292.1888732910156
tp45
a(I22
I448
I615
I12
I16
I12
F292.2094421386719
tp46
a(I34
I440
I530
I12
I16
I12
F292.23907470703125
tp47
a(I46
I436
I530
I12
I16
I12
F292.2735290527344
tp48
a(I56
I426
I706
I12
I16
I12
F292.3075866699219
tp49
a(I70
I424
I530
I12
I16
I12
F292.3403015136719
tp50
a(I78
I424
I452
I12
I16
I12
F292.3696594238281
tp51
a(I82
I422
I706
I12
I16
I12
F292.4032287597656
tp52
a(I90
I416
I706
I12
I16
I12
F292.4393615722656
tp53
a(I100
I416
I615
I12
I16
I12
F292.466064453125
tp54
a(I104
I410
I530
I12
I16
I12
F292.498779296875
tp55
a(I108
I408
I530
I12
I16
I12
F292.5136413574219
tp56
a(I120
I404
I615
I12
I16
I12
F292.544677734375
tp57
a(I140
I398
I615
I12
I16
I12
F292.5962219238281
tp58
a(I144
I394
I804
I12
I16
I12
F292.6122741699219
tp59
a(I156
I390
I530
I12
I16
I12
F292.6424560546875
tp60
a(I170
I382
I706
I12
I16
I12
F292.6776123046875
tp61
a(I184
I374
I706
I12
I16
I12
F292.7115478515625
tp62
a(I196
I368
I706
I12
I16
I12
F292.7408142089844
tp63
a(I206
I364
I615
I12
I16
I12
F292.77667236328125
tp64
a(I214
I364
I530
I12
I16
I12
F292.8076171875
tp65
a(I230
I356
I706
I12
I16
I12
F292.8381042480469
tp66
a(I242
I350
I804
I12
I16
I12
F292.87115478515625
tp67
a(I248
I346
I615
I12
I16
I12
F292.88836669921875
tp68
a(I268
I340
I530
I12
I16
I12
F292.9341125488281
tp69
a(I282
I330
I804
I12
I16
I12
F292.98419189453125
tp70
a(I296
I322
I907
I12
I16
I12
F293.0147399902344
tp71
a(I308
I318
I804
I12
I16
I12
F293.0475158691406
tp72
a(I316
I314
I804
I12
I16
I12
F293.0640869140625
tp73
a(I328
I308
I907
I12
I16
I12
F293.1002197265625
tp74
a(I340
I302
I907
I12
I16
I12
F293.1322937011719
tp75
a(I352
I298
I804
I12
I16
I12
F293.1611022949219
tp76
a(I366
I292
I706
I12
I16
I12
F293.1930847167969
tp77
a(I376
I286
I907
I12
I16
I12
F293.22686767578125
tp78
a(I390
I282
I907
I12
I16
I12
F293.25677490234375
tp79
a(I400
I274
I804
I12
I16
I12
F293.2920227050781
tp80
a(I412
I270
I804
I12
I16
I12
F293.32354736328125
tp81
a(I426
I264
I706
I12
I16
I12
F293.35882568359375
tp82
a(I438
I260
I804
I12
I16
I12
F293.3891296386719
tp83
a(I448
I254
I804
I12
I16
I12
F293.4217224121094
tp84
a(I460
I248
I706
I12
I16
I12
F293.45330810546875
tp85
a(I472
I242
I804
I12
I16
I12
F293.4826354980469
tp86
a(I482
I240
I615
I12
I16
I12
F293.5164794921875
tp87
a(I486
I234
I530
I12
I16
I12
F293.5340881347656
tp88
a(I500
I230
I804
I12
I16
I12
F293.5640563964844
tp89
a(I518
I222
I615
I12
I16
I12
F293.61199951171875
tp90
a(I522
I222
I706
I12
I16
I12
F293.6305847167969
tp91
a(I530
I216
I530
I12
I16
I12
F293.66259765625
tp92
a(I542
I212
I530
I12
I16
I12
F293.6966552734375
tp93
a(I552
I208
I706
I12
I16
I12
F293.7298889160156
tp94
a(I562
I206
I615
I12
I16
I12
F293.760009765625
tp95
a(I570
I200
I615
I12
I16
I12
F293.7961120605469
tp96
a(I582
I194
I530
I12
I16
I12
F293.8250427246094
tp97
a(I590
I194
I530
I12
I16
I12
F293.85614013671875
tp98
a(I600
I190
I615
I12
I16
I12
F293.8893127441406
tp99
a(I604
I186
I706
I12
I16
I12
F293.9057312011719
tp100
a(I616
I178
I530
I12
I16
I12
F293.9541015625
tp101
a(I626
I176
I530
I12
I16
I12
F293.9854431152344
tp102
a(I630
I174
I706
I12
I16
I12
F294.0021057128906
tp103
a(I638
I170
I615
I12
I16
I12
F294.0362243652344
tp104
a(I646
I166
I530
I12
I16
I12
F294.07000732421875
tp105
a(I652
I166
I615
I12
I16
I12
F294.1009216308594
tp106
a(I12
I450
I530
I12
I16
I12
F294.13055419921875
tp107
a(I52
I18
I804
I12
I16
I12
F294.1643981933594
tp108
a(I244
I426
I530
I12
I16
I12
F294.19891357421875
tp109
a(I14
I452
I706
I12
I16
I12
F294.229248046875
tp110
a(I50
I20
I907
I12
I16
I12
F294.26123046875
tp111
a(I656
I180
I706
I12
I16
I12
F294.2980041503906
tp112
a(I660
I180
I615
I12
I16
I12
F294.3248596191406
tp113
a(I656
I184
I452
I12
I16
I12
F294.3569030761719
tp114
a(I52
I18
I615
I12
I16
I12
F294.3746337890625
tp115
a(I658
I192
I615
I12
I16
I12
F294.421142578125
tp116
a(I658
I190
I530
I12
I16
I12
F294.44122314453125
tp117
a(I52
I18
I615
I12
I16
I12
F294.47222900390625
tp118
a(I50
I20
I907
I12
I16
I12
F294.5047912597656
tp119
a(I656
I204
I804
I12
I16
I12
F294.5396728515625
tp120
a(I658
I206
I907
I12
I16
I12
F294.57647705078125
tp121
a(I652
I208
I615
I12
I16
I12
F294.6017761230469
tp122
a(I652
I210
I530
I12
I16
I12
F294.6337890625
tp123
a(I652
I212
I530
I12
I16
I12
F294.67108154296875
tp124
a(I654
I214
I706
I12
I16
I12
F294.6986999511719
tp125
a(I652
I214
I530
I12
I16
I12
F294.7286071777344
tp126
a(I654
I214
I530
I12
I16
I12
F294.7658386230469
tp127
a(I654
I216
I706
I12
I16
I12
F294.7800598144531
tp128
a(I654
I214
I706
I12
I16
I12
F294.82696533203125
tp129
a(I652
I212
I530
I12
I16
I12
F294.845703125
tp130
a(I652
I210
I530
I12
I16
I12
F294.8774719238281
tp131
a(I652
I212
I615
I12
I16
I12
F294.91082763671875
tp132
a(I48
I22
I1134
I12
I16
I12
F294.94476318359375
tp133
a(I656
I208
I804
I12
I16
I12
F294.97332763671875
tp134
a(I652
I206
I615
I12
I16
I12
F295.0068664550781
tp135
a(I658
I206
I530
I12
I16
I12
F295.04534912109375
tp136
a(I658
I202
I530
I12
I16
I12
F295.072509765625
tp137
a(I656
I202
I706
I12
I16
I12
F295.10400390625
tp138
a(I654
I202
I615
I12
I16
I12
F295.1401672363281
tp139
a(I654
I200
I530
I12
I16
I12
F295.17169189453125
tp140
a(I656
I200
I615
I12
I16
I12
F295.2000427246094
tp141
a(I12
I450
I530
I12
I16
I12
F295.2340087890625
tp142
a(I50
I20
I907
I12
I16
I12
F295.2491455078125
tp143
a(I658
I194
I615
I12
I16
I12
F295.2807922363281
tp144
a(I658
I192
I530
I12
I16
I12
F295.3171081542969
tp145
a(I48
I24
I1134
I12
I16
I12
F295.3448791503906
tp146
a(I50
I20
I907
I12
I16
I12
F295.37847900390625
tp147
a(I660
I192
I615
I12
I16
I12
F295.442138671875
tp148
a(I660
I190
I615
I12
I16
I12
F295.476318359375
tp149
a(I14
I358
I530
I12
I16
I12
F295.508544921875
tp150
a(I14
I452
I615
I12
I16
I12
F295.5401916503906
tp151
a(I16
I450
I615
I12
I16
I12
F295.57281494140625
tp152
a(I48
I20
I907
I12
I16
I12
F295.6070251464844
tp153
a(I50
I22
I907
I12
I16
I12
F295.6232604980469
tp154
a(I662
I184
I530
I12
I16
I12
F295.6724548339844
tp155
a(I48
I22
I1017
I12
I16
I12
F295.7020568847656
tp156
a(I40
I32
I1017
I12
I16
I12
F295.71759033203125
tp157
a(I48
I22
I907
I12
I16
I12
F295.748291015625
tp158
a(I48
I22
I1017
I12
I16
I12
F295.7872009277344
tp159
a(I42
I32
I907
I12
I16
I12
F295.814453125
tp160
a(I50
I20
I804
I12
I16
I12
F295.84808349609375
tp161
a(I42
I34
I1134
I12
I16
I12
F295.8836364746094
tp162
a(I52
I18
I615
I12
I16
I12
F295.9126281738281
tp163
a(I48
I20
I706
I12
I16
I12
F295.9443359375
tp164
a(I50
I18
I706
I12
I16
I12
F295.9780578613281
tp165
a(I42
I30
I907
I12
I16
I12
F296.0118713378906
tp166
a(I52
I18
I615
I12
I16
I12
F296.0418395996094
tp167
a(I50
I20
I907
I12
I16
I12
F296.07501220703125
tp168
a(I48
I20
I1017
I12
I16
I12
F296.09033203125
tp169
a(I662
I188
I615
I12
I16
I12
F296.1388854980469
tp170
a(I662
I186
I615
I12
I16
I12
F296.1687316894531
tp171
a(I48
I20
I907
I12
I16
I12
F296.1927185058594
tp172
a(I50
I20
I804
I12
I16
I12
F296.2204895019531
tp173
a(I48
I20
I706
I12
I16
I12
F296.2520446777344
tp174
a(I50
I18
I804
I12
I16
I12
F296.2837829589844
tp175
a(I50
I18
I706
I12
I16
I12
F296.3169860839844
tp176
a(I16
I448
I530
I12
I16
I12
F296.3504943847656
tp177
a(I18
I450
I615
I12
I16
I12
F296.3853454589844
tp178
a(I48
I22
I1134
I12
I16
I12
F296.4136047363281
tp179
a(I50
I20
I804
I12
I16
I12
F296.4490661621094
tp180
a(I46
I28
I1134
I12
I16
I12
F296.459716796875
tp181
a(I662
I188
I615
I12
I16
I12
F296.5103454589844
tp182
a(I50
I18
I706
I12
I16
I12
F296.6082458496094
tp183
a(I50
I20
I804
I12
I16
I12
F296.6244812011719
tp184
a(I50
I22
I804
I12
I16
I12
F296.65484619140625
tp185
a(I50
I20
I804
I12
I16
I12
F296.6881408691406
tp186
a(I48
I20
I1017
I12
I16
I12
F296.7231140136719
tp187
a(I662
I188
I615
I12
I16
I12
F296.78546142578125
tp188
a(I48
I20
I907
I12
I16
I12
F296.816162109375
tp189
a(I50
I18
I804
I12
I16
I12
F296.85455322265625
tp190
a(I662
I188
I615
I12
I16
I12
F296.8829040527344
tp191
a(I50
I20
I804
I12
I16
I12
F297.0455627441406
tp192
a(I662
I188
I615
I12
I16
I12
F297.060546875
tp193
a(I48
I20
I907
I12
I16
I12
F297.09710693359375
tp194
a(I662
I188
I615
I12
I16
I12
F297.1263122558594
tp195
a(I16
I56
I615
I12
I16
I12
F297.2248229980469
tp196
a(I18
I450
I615
I12
I16
I12
F297.2543029785156
tp197
a(I50
I20
I907
I12
I16
I12
F297.28948974609375
tp198
a.