(lp0
(I78
I36
I706
I12
I16
I12
F166.23919677734375
tp1
a(I38
I20
I706
I12
I16
I12
F166.30520629882812
tp2
a(I78
I36
I706
I12
I16
I12
F166.33865356445312
tp3
a(I78
I36
I530
I12
I16
I12
F166.36944580078125
tp4
a(I78
I36
I706
I12
I16
I12
F166.4025421142578
tp5
a(I78
I36
I530
I12
I16
I12
F166.46636962890625
tp6
a(I40
I20
I615
I12
I16
I12
F166.5360565185547
tp7
a(I78
I36
I615
I12
I16
I12
F166.56668090820312
tp8
a(I78
I36
I706
I12
I16
I12
F166.59666442871094
tp9
a(I38
I18
I804
I12
I16
I12
F166.62765502929688
tp10
a(I80
I36
I615
I12
I16
I12
F166.66062927246094
tp11
a(I78
I36
I706
I12
I16
I12
F166.6801300048828
tp12
a(I78
I34
I615
I12
I16
I12
F166.90928649902344
tp13
a(I82
I38
I530
I12
I16
I12
F166.93629455566406
tp14
a(I78
I36
I706
I12
I16
I12
F166.96604919433594
tp15
a(I80
I34
I530
I12
I16
I12
F167.00091552734375
tp16
a(I78
I36
I706
I12
I16
I12
F167.03428649902344
tp17
a(I38
I20
I706
I12
I16
I12
F167.06298828125
tp18
a(I38
I18
I615
I12
I16
I12
F167.0979461669922
tp19
a(I82
I38
I530
I12
I16
I12
F167.11363220214844
tp20
a(I78
I36
I706
I12
I16
I12
F167.13365173339844
tp21
a(I40
I22
I530
I12
I16
I12
F167.1619873046875
tp22
a(I80
I36
I615
I12
I16
I12
F167.19473266601562
tp23
a(I78
I36
I530
I12
I16
I12
F167.23426818847656
tp24
a(I78
I36
I706
I12
I16
I12
F167.259033203125
tp25
a(I80
I34
I530
I12
I16
I12
F167.29034423828125
tp26
a(I78
I36
I706
I12
I16
I12
F167.3255157470703
tp27
a(I80
I36
I530
I12
I16
I12
F167.3551788330078
tp28
a(I78
I36
I615
I12
I16
I12
F167.42385864257812
tp29
a(I80
I36
I615
I12
I16
I12
F167.45652770996094
tp30
a(I84
I38
I530
I12
I16
I12
F167.4857940673828
tp31
a(I96
I38
I530
I12
I16
I12
F167.5193328857422
tp32
a(I102
I38
I530
I12
I16
I12
F167.5329132080078
tp33
a(I124
I40
I706
I12
I16
I12
F167.58299255371094
tp34
a(I140
I40
I706
I12
I16
I12
F167.61473083496094
tp35
a(I150
I42
I615
I12
I16
I12
F167.63133239746094
tp36
a(I168
I44
I615
I12
I16
I12
F167.66085815429688
tp37
a(I184
I48
I907
I12
I16
I12
F167.70138549804688
tp38
a(I200
I52
I615
I12
I16
I12
F167.728515625
tp39
a(I218
I54
I804
I12
I16
I12
F167.75897216796875
tp40
a(I234
I60
I706
I12
I16
I12
F167.79611206054688
tp41
a(I246
I62
I615
I12
I16
I12
F167.8280792236328
tp42
a(I260
I62
I804
I12
I16
I12
F167.85861206054688
tp43
a(I274
I62
I907
I12
I16
I12
F167.8909912109375
tp44
a(I288
I66
I706
I12
I16
I12
F167.92718505859375
tp45
a(I302
I66
I530
I12
I16
I12
F167.95448303222656
tp46
a(I312
I70
I804
I12
I16
I12
F167.98486328125
tp47
a(I318
I70
I615
I12
I16
I12
F168.00401306152344
tp48
a(I338
I72
I907
I12
I16
I12
F168.0509033203125
tp49
a(I350
I74
I706
I12
I16
I12
F168.08470153808594
tp50
a(I356
I76
I804
I12
I16
I12
F168.1022186279297
tp51
a(I370
I76
I804
I12
I16
I12
F168.13162231445312
tp52
a(I374
I78
I706
I12
I16
I12
F168.15057373046875
tp53
a(I386
I78
I907
I12
I16
I12
F168.18014526367188
tp54
a(I400
I82
I804
I12
I16
I12
F168.2147674560547
tp55
a(I412
I80
I530
I12
I16
I12
F168.25144958496094
tp56
a(I426
I84
I804
I12
I16
I12
F168.27847290039062
tp57
a(I434
I84
I706
I12
I16
I12
F168.30892944335938
tp58
a(I448
I86
I804
I12
I16
I12
F168.3482666015625
tp59
a(I462
I88
I706
I12
I16
I12
F168.37545776367188
tp60
a(I470
I92
I907
I12
I16
I12
F168.40573120117188
tp61
a(I482
I90
I706
I12
I16
I12
F168.44285583496094
tp62
a(I496
I90
I804
I12
I16
I12
F168.47396850585938
tp63
a(I504
I90
I530
I12
I16
I12
F168.5041046142578
tp64
a(I510
I92
I615
I12
I16
I12
F168.52365112304688
tp65
a(I520
I94
I804
I12
I16
I12
F168.5543975830078
tp66
a(I532
I94
I907
I12
I16
I12
F168.58779907226562
tp67
a(I540
I96
I706
I12
I16
I12
F168.6226348876953
tp68
a(I550
I96
I530
I12
I16
I12
F168.6508026123047
tp69
a(I562
I96
I530
I12
I16
I12
F168.68142700195312
tp70
a(I570
I100
I530
I12
I16
I12
F168.72120666503906
tp71
a(I580
I100
I615
I12
I16
I12
F168.747802734375
tp72
a(I590
I100
I615
I12
I16
I12
F168.78314208984375
tp73
a(I600
I98
I530
I12
I16
I12
F168.8173065185547
tp74
a(I608
I102
I615
I12
I16
I12
F168.84564208984375
tp75
a(I618
I102
I452
I12
I16
I12
F168.8778533935547
tp76
a(I624
I104
I615
I12
I16
I12
F168.91140747070312
tp77
a(I630
I104
I615
I12
I16
I12
F168.92433166503906
tp78
a(I640
I104
I530
I12
I16
I12
F168.95880126953125
tp79
a(I630
I458
I530
I12
I16
I12
F169.00579833984375
tp80
a(I12
I82
I1017
I12
I16
I12
F169.02232360839844
tp81
a(I32
I30
I530
I12
I16
I12
F169.05271911621094
tp82
a(I230
I436
I530
I12
I16
I12
F169.09249877929688
tp83
a(I32
I54
I530
I12
I16
I12
F169.11968994140625
tp84
a(I634
I24
I530
I12
I16
I12
F169.15475463867188
tp85
a(I632
I26
I530
I12
I16
I12
F169.1878204345703
tp86
a(I32
I30
I530
I12
I16
I12
F169.2167510986328
tp87
a(I632
I30
I1017
I12
I16
I12
F169.249267578125
tp88
a(I632
I26
I706
I12
I16
I12
F169.2827911376953
tp89
a(I14
I450
I530
I12
I16
I12
F169.29713439941406
tp90
a(I46
I50
I530
I12
I16
I12
F169.34677124023438
tp91
a(I632
I26
I530
I12
I16
I12
F169.37672424316406
tp92
a(I632
I26
I615
I12
I16
I12
F169.3946990966797
tp93
a(I30
I30
I530
I12
I16
I12
F169.44293212890625
tp94
a(I634
I24
I530
I12
I16
I12
F169.4732208251953
tp95
a(I240
I422
I530
I12
I16
I12
F169.49124145507812
tp96
a(I634
I24
I530
I12
I16
I12
F169.5218048095703
tp97
a(I122
I420
I804
I12
I16
I12
F169.5619659423828
tp98
a(I32
I62
I530
I12
I16
I12
F169.58969116210938
tp99
a(I24
I470
I804
I12
I16
I12
F169.62037658691406
tp100
a(I632
I26
I615
I12
I16
I12
F169.65591430664062
tp101
a(I56
I32
I1017
I12
I16
I12
F169.71881103515625
tp102
a(I56
I32
I530
I12
I16
I12
F169.74896240234375
tp103
a(I632
I30
I1134
I12
I16
I12
F169.7669219970703
tp104
a(I240
I438
I530
I12
I16
I12
F169.79685974121094
tp105
a(I34
I56
I452
I12
I16
I12
F169.831787109375
tp106
a(I630
I30
I1134
I12
I16
I12
F169.86387634277344
tp107
a(I632
I26
I530
I12
I16
I12
F169.8944854736328
tp108
a(I242
I438
I615
I12
I16
I12
F169.93212890625
tp109
a(I16
I452
I615
I12
I16
I12
F169.9625701904297
tp110
a(I632
I26
I530
I12
I16
I12
F169.99134826660156
tp111
a(I634
I24
I530
I12
I16
I12
F170.0269775390625
tp112
a(I32
I58
I530
I12
I16
I12
F170.06178283691406
tp113
a(I632
I26
I530
I12
I16
I12
F170.09027099609375
tp114
a(I60
I28
I1134
I12
I16
I12
F170.12193298339844
tp115
a(I58
I34
I615
I12
I16
I12
F170.13951110839844
tp116
a(I64
I24
I530
I12
I16
I12
F170.1871337890625
tp117
a(I46
I50
I804
I12
I16
I12
F170.21807861328125
tp118
a(I634
I24
I530
I12
I16
I12
F170.251220703125
tp119
a(I32
I42
I615
I12
I16
I12
F170.2838592529297
tp120
a(I634
I24
I530
I12
I16
I12
F170.3152618408203
tp121
a(I32
I56
I530
I12
I16
I12
F170.3641357421875
tp122
a(I632
I26
I530
I12
I16
I12
F170.39877319335938
tp123
a(I634
I24
I530
I12
I16
I12
F170.4340362548828
tp124
a(I632
I26
I530
I12
I16
I12
F170.46240234375
tp125
a(I634
I24
I530
I12
I16
I12
F170.49456787109375
tp126
a(I134
I84
I530
I12
I16
I12
F170.53343200683594
tp127
a(I38
I44
I530
I12
I16
I12
F170.560546875
tp128
a(I632
I26
I530
I12
I16
I12
F170.59327697753906
tp129
a(I634
I24
I530
I12
I16
I12
F170.6566925048828
tp130
a(I632
I26
I530
I12
I16
I12
F170.68902587890625
tp131
a(I18
I44
I1134
I12
I16
I12
F170.7228240966797
tp132
a(I18
I46
I1017
I12
I16
I12
F170.73721313476562
tp133
a(I26
I46
I1134
I12
I16
I12
F170.78414916992188
tp134
a(I22
I46
I1134
I12
I16
I12
F170.80599975585938
tp135
a(I30
I48
I1134
I12
I16
I12
F170.8375701904297
tp136
a(I36
I50
I1134
I12
I16
I12
F170.86807250976562
tp137
a(I634
I24
I530
I12
I16
I12
F170.90579223632812
tp138
a(I632
I26
I530
I12
I16
I12
F170.93218994140625
tp139
a(I146
I62
I706
I12
I16
I12
F170.96640014648438
tp140
a(I88
I16
I1017
I12
I16
I12
F171.00196838378906
tp141
a(I78
I46
I1134
I12
I16
I12
F171.03109741210938
tp142
a(I66
I58
I1017
I12
I16
I12
F171.06216430664062
tp143
a(I92
I50
I907
I12
I16
I12
F171.0966796875
tp144
a(I114
I80
I615
I12
I16
I12
F171.10824584960938
tp145
a(I12
I448
I530
I12
I16
I12
F171.15817260742188
tp146
a(I226
I84
I615
I12
I16
I12
F171.18966674804688
tp147
a(I224
I90
I1134
I12
I16
I12
F171.20730590820312
tp148
a(I130
I58
I804
I12
I16
I12
F171.23828125
tp149
a(I634
I24
I530
I12
I16
I12
F171.2555389404297
tp150
a(I230
I84
I804
I12
I16
I12
F171.30368041992188
tp151
a(I232
I90
I530
I12
I16
I12
F171.33592224121094
tp152
a(I28
I48
I907
I12
I16
I12
F171.3861846923828
tp153
a(I106
I38
I1134
I12
I16
I12
F171.42042541503906
tp154
a(I254
I104
I804
I12
I16
I12
F171.4533233642578
tp155
a(I252
I108
I1134
I12
I16
I12
F171.48233032226562
tp156
a(I242
I70
I1017
I12
I16
I12
F171.51512145996094
tp157
a(I230
I108
I907
I12
I16
I12
F171.5514678955078
tp158
a(I10
I452
I530
I12
I16
I12
F171.5795135498047
tp159
a(I286
I132
I706
I12
I16
I12
F171.6107940673828
tp160
a(I42
I30
I804
I12
I16
I12
F171.62730407714844
tp161
a(I40
I30
I1017
I12
I16
I12
F171.6760711669922
tp162
a(I352
I120
I615
I12
I16
I12
F171.7095489501953
tp163
a(I294
I66
I706
I12
I16
I12
F171.72483825683594
tp164
a(I300
I64
I530
I12
I16
I12
F171.75750732421875
tp165
a(I248
I118
I1017
I12
I16
I12
F171.79124450683594
tp166
a(I46
I20
I706
I12
I16
I12
F171.8220977783203
tp167
a(I370
I110
I1134
I12
I16
I12
F171.85238647460938
tp168
a(I236
I86
I1134
I12
I16
I12
F171.88497924804688
tp169
a(I280
I6
I1017
I12
I16
I12
F171.92160034179688
tp170
a(I336
I130
I530
I12
I16
I12
F171.94960021972656
tp171
a(I382
I24
I706
I12
I16
I12
F171.98129272460938
tp172
a(I310
I14
I804
I12
I16
I12
F172.02102661132812
tp173
a(I344
I150
I706
I12
I16
I12
F172.04832458496094
tp174
a(I338
I18
I706
I12
I16
I12
F172.08193969726562
tp175
a(I352
I20
I615
I12
I16
I12
F172.11521911621094
tp176
a(I378
I2
I615
I12
I16
I12
F172.1293487548828
tp177
a(I382
I18
I804
I12
I16
I12
F172.17823791503906
tp178
a(I390
I18
I907
I12
I16
I12
F172.19808959960938
tp179
a(I404
I18
I907
I12
I16
I12
F172.2261199951172
tp180
a(I416
I18
I1017
I12
I16
I12
F172.2566375732422
tp181
a(I432
I18
I706
I12
I16
I12
F172.2971649169922
tp182
a(I448
I128
I907
I12
I16
I12
F172.32339477539062
tp183
a(I462
I122
I706
I12
I16
I12
F172.35353088378906
tp184
a(I468
I116
I615
I12
I16
I12
F172.38751220703125
tp185
a(I476
I110
I615
I12
I16
I12
F172.4202117919922
tp186
a(I486
I20
I530
I12
I16
I12
F172.45179748535156
tp187
a(I486
I100
I615
I12
I16
I12
F172.48902893066406
tp188
a(I494
I94
I706
I12
I16
I12
F172.52027893066406
tp189
a(I504
I94
I804
I12
I16
I12
F172.55081176757812
tp190
a(I512
I94
I615
I12
I16
I12
F172.56976318359375
tp191
a(I520
I94
I804
I12
I16
I12
F172.59793090820312
tp192
a(I538
I100
I530
I12
I16
I12
F172.64707946777344
tp193
a(I542
I98
I615
I12
I16
I12
F172.66839599609375
tp194
a(I552
I100
I706
I12
I16
I12
F172.69491577148438
tp195
a(I634
I26
I615
I12
I16
I12
F172.7251739501953
tp196
a(I568
I106
I706
I12
I16
I12
F172.75901794433594
tp197
a(I40
I30
I706
I12
I16
I12
F172.79129028320312
tp198
a(I506
I104
I1134
I12
I16
I12
F172.8258056640625
tp199
a.