(lp0
(I148
I322
I1134
I12
I16
I12
F37.375911712646484
tp1
a(I104
I328
I706
I12
I16
I12
F37.407474517822266
tp2
a(I100
I322
I1134
I12
I16
I12
F37.44126892089844
tp3
a(I84
I326
I1017
I12
I16
I12
F37.474632263183594
tp4
a(I124
I352
I907
I12
I16
I12
F37.507911682128906
tp5
a(I60
I334
I706
I12
I16
I12
F37.537967681884766
tp6
a(I36
I348
I615
I12
I16
I12
F37.57014465332031
tp7
a(I36
I338
I615
I12
I16
I12
F37.60628128051758
tp8
a(I184
I304
I530
I12
I16
I12
F37.635650634765625
tp9
a(I60
I358
I907
I12
I16
I12
F37.6658935546875
tp10
a(I80
I412
I1134
I12
I16
I12
F37.683231353759766
tp11
a(I30
I358
I1017
I12
I16
I12
F37.73192596435547
tp12
a(I26
I354
I706
I12
I16
I12
F37.74708938598633
tp13
a(I22
I356
I1134
I12
I16
I12
F37.78208923339844
tp14
a(I50
I414
I907
I12
I16
I12
F37.814334869384766
tp15
a(I78
I270
I452
I12
I16
I12
F37.84806442260742
tp16
a(I42
I20
I530
I12
I16
I12
F37.88007736206055
tp17
a(I14
I400
I530
I12
I16
I12
F37.90932846069336
tp18
a(I26
I402
I530
I12
I16
I12
F37.942474365234375
tp19
a(I20
I398
I706
I12
I16
I12
F37.97930145263672
tp20
a(I42
I20
I615
I12
I16
I12
F38.00820541381836
tp21
a(I14
I392
I804
I12
I16
I12
F38.03809356689453
tp22
a(I14
I394
I530
I12
I16
I12
F38.054954528808594
tp23
a(I6
I396
I706
I12
I16
I12
F38.103675842285156
tp24
a(I42
I20
I530
I12
I16
I12
F38.13502883911133
tp25
a(I634
I24
I530
I12
I16
I12
F38.152767181396484
tp26
a(I632
I26
I615
I12
I16
I12
F38.21832275390625
tp27
a(I632
I26
I530
I12
I16
I12
F38.2503662109375
tp28
a(I42
I20
I530
I12
I16
I12
F38.28207015991211
tp29
a(I632
I26
I530
I12
I16
I12
F38.378753662109375
tp30
a(I42
I20
I615
I12
I16
I12
F38.40924835205078
tp31
a(I42
I20
I530
I12
I16
I12
F38.44944763183594
tp32
a(I10
I372
I1134
I12
I16
I12
F38.47518539428711
tp33
a(I632
I26
I615
I12
I16
I12
F38.50633239746094
tp34
a(I42
I20
I615
I12
I16
I12
F38.54076385498047
tp35
a(I42
I20
I530
I12
I16
I12
F38.59269332885742
tp36
a(I6
I268
I615
I12
I16
I12
F38.62464904785156
tp37
a(I42
I20
I530
I12
I16
I12
F38.65386962890625
tp38
a(I42
I20
I615
I12
I16
I12
F38.687164306640625
tp39
a(I240
I436
I615
I12
I16
I12
F38.72347640991211
tp40
a(I16
I266
I1017
I12
I16
I12
F38.75141906738281
tp41
a(I4
I278
I615
I12
I16
I12
F38.78202819824219
tp42
a(I42
I20
I530
I12
I16
I12
F38.82105255126953
tp43
a(I240
I438
I530
I12
I16
I12
F38.88041305541992
tp44
a(I632
I26
I530
I12
I16
I12
F38.91489028930664
tp45
a(I42
I20
I907
I12
I16
I12
F38.9480094909668
tp46
a(I240
I438
I530
I12
I16
I12
F38.97820281982422
tp47
a(I632
I26
I615
I12
I16
I12
F38.995826721191406
tp48
a(I46
I352
I530
I12
I16
I12
F39.0256462097168
tp49
a(I632
I26
I615
I12
I16
I12
F39.058326721191406
tp50
a(I48
I348
I615
I12
I16
I12
F39.096092224121094
tp51
a(I634
I30
I1017
I12
I16
I12
F39.122989654541016
tp52
a(I42
I362
I804
I12
I16
I12
F39.15314865112305
tp53
a(I632
I26
I706
I12
I16
I12
F39.193172454833984
tp54
a(I632
I26
I615
I12
I16
I12
F39.21904754638672
tp55
a(I42
I20
I530
I12
I16
I12
F39.2507209777832
tp56
a(I42
I20
I615
I12
I16
I12
F39.28998947143555
tp57
a(I634
I24
I530
I12
I16
I12
F39.31818389892578
tp58
a(I42
I22
I1017
I12
I16
I12
F39.35017395019531
tp59
a(I42
I20
I530
I12
I16
I12
F39.38315963745117
tp60
a(I634
I24
I530
I12
I16
I12
F39.39906692504883
tp61
a(I240
I438
I530
I12
I16
I12
F39.44666290283203
tp62
a(I4
I410
I706
I12
I16
I12
F39.477264404296875
tp63
a(I42
I22
I1017
I12
I16
I12
F39.495487213134766
tp64
a(I2
I408
I1134
I12
I16
I12
F39.52644348144531
tp65
a(I42
I20
I530
I12
I16
I12
F39.56480026245117
tp66
a(I22
I296
I1134
I12
I16
I12
F39.62535095214844
tp67
a(I30
I308
I530
I12
I16
I12
F39.660526275634766
tp68
a(I28
I304
I452
I12
I16
I12
F39.69131851196289
tp69
a(I28
I304
I530
I12
I16
I12
F39.72239303588867
tp70
a(I30
I304
I804
I12
I16
I12
F39.75618362426758
tp71
a(I28
I302
I706
I12
I16
I12
F39.769588470458984
tp72
a(I26
I298
I530
I12
I16
I12
F39.81890106201172
tp73
a(I28
I298
I530
I12
I16
I12
F39.85157775878906
tp74
a(I634
I24
I530
I12
I16
I12
F39.86721420288086
tp75
a(I26
I298
I452
I12
I16
I12
F39.91534423828125
tp76
a(I24
I298
I530
I12
I16
I12
F39.93606948852539
tp77
a(I22
I296
I530
I12
I16
I12
F39.96461486816406
tp78
a(I24
I296
I530
I12
I16
I12
F39.99446487426758
tp79
a(I22
I296
I615
I12
I16
I12
F40.031009674072266
tp80
a(I22
I294
I530
I12
I16
I12
F40.06437683105469
tp81
a(I20
I292
I452
I12
I16
I12
F40.093780517578125
tp82
a(I22
I294
I530
I12
I16
I12
F40.12714767456055
tp83
a(I20
I292
I530
I12
I16
I12
F40.16318893432617
tp84
a(I22
I292
I530
I12
I16
I12
F40.222328186035156
tp85
a(I22
I294
I452
I12
I16
I12
F40.26947784423828
tp86
a(I22
I290
I615
I12
I16
I12
F40.32011413574219
tp87
a(I22
I292
I615
I12
I16
I12
F40.34024429321289
tp88
a(I24
I292
I530
I12
I16
I12
F40.36927032470703
tp89
a(I24
I292
I452
I12
I16
I12
F40.38628387451172
tp90
a(I24
I290
I615
I12
I16
I12
F40.41502380371094
tp91
a(I22
I290
I530
I12
I16
I12
F40.450443267822266
tp92
a(I24
I290
I706
I12
I16
I12
F40.54505157470703
tp93
a(I24
I292
I530
I12
I16
I12
F40.580631256103516
tp94
a(I22
I296
I804
I12
I16
I12
F40.610877990722656
tp95
a(I24
I294
I530
I12
I16
I12
F40.641666412353516
tp96
a(I22
I292
I615
I12
I16
I12
F40.67917251586914
tp97
a(I22
I292
I530
I12
I16
I12
F40.70878601074219
tp98
a(I24
I296
I452
I12
I16
I12
F40.74119567871094
tp99
a(I24
I294
I530
I12
I16
I12
F40.77427291870117
tp100
a(I24
I298
I530
I12
I16
I12
F40.83686447143555
tp101
a(I24
I298
I615
I12
I16
I12
F40.857933044433594
tp102
a(I26
I296
I452
I12
I16
I12
F40.886558532714844
tp103
a(I24
I298
I530
I12
I16
I12
F40.91865158081055
tp104
a(I26
I294
I530
I12
I16
I12
F40.957298278808594
tp105
a(I26
I302
I706
I12
I16
I12
F40.98399353027344
tp106
a(I26
I304
I907
I12
I16
I12
F41.01835632324219
tp107
a(I28
I296
I530
I12
I16
I12
F41.05305862426758
tp108
a(I24
I298
I530
I12
I16
I12
F41.08423614501953
tp109
a(I26
I312
I452
I12
I16
I12
F41.112998962402344
tp110
a(I26
I300
I615
I12
I16
I12
F41.144287109375
tp111
a(I26
I302
I615
I12
I16
I12
F41.16149139404297
tp112
a(I2
I398
I1134
I12
I16
I12
F41.21073532104492
tp113
a(I26
I302
I615
I12
I16
I12
F41.231014251708984
tp114
a(I28
I302
I530
I12
I16
I12
F41.25831604003906
tp115
a(I28
I304
I615
I12
I16
I12
F41.289161682128906
tp116
a(I28
I306
I530
I12
I16
I12
F41.32460403442383
tp117
a(I632
I26
I530
I12
I16
I12
F41.35472106933594
tp118
a(I28
I308
I530
I12
I16
I12
F41.38909912109375
tp119
a(I30
I310
I530
I12
I16
I12
F41.42302322387695
tp120
a(I22
I292
I1134
I12
I16
I12
F41.45402145385742
tp121
a(I50
I22
I1017
I12
I16
I12
F41.4852294921875
tp122
a(I42
I20
I530
I12
I16
I12
F41.51838684082031
tp123
a(I56
I310
I1017
I12
I16
I12
F41.55296325683594
tp124
a(I632
I30
I1134
I12
I16
I12
F41.58225631713867
tp125
a(I56
I310
I907
I12
I16
I12
F41.61285400390625
tp126
a(I42
I20
I530
I12
I16
I12
F41.63095474243164
tp127
a(I632
I26
I615
I12
I16
I12
F41.67940139770508
tp128
a(I4
I398
I1134
I12
I16
I12
F41.71017074584961
tp129
a(I42
I20
I615
I12
I16
I12
F41.72799301147461
tp130
a(I42
I20
I530
I12
I16
I12
F41.7594108581543
tp131
a(I42
I22
I1017
I12
I16
I12
F41.828792572021484
tp132
a(I42
I20
I615
I12
I16
I12
F41.8577995300293
tp133
a(I42
I20
I530
I12
I16
I12
F41.89208984375
tp134
a(I22
I54
I1134
I12
I16
I12
F41.92682647705078
tp135
a(I4
I398
I1134
I12
I16
I12
F41.95462417602539
tp136
a.