(lp0
(I104
I18
I530
I12
I16
I12
F80.1549301147461
tp1
a(I106
I16
I615
I12
I16
I12
F80.20376586914062
tp2
a(I106
I16
I804
I12
I16
I12
F80.23390197753906
tp3
a(I108
I18
I530
I12
I16
I12
F80.26709747314453
tp4
a(I110
I12
I530
I12
I16
I12
F80.30242919921875
tp5
a(I110
I16
I615
I12
I16
I12
F80.33089447021484
tp6
a(I112
I12
I615
I12
I16
I12
F80.36180114746094
tp7
a(I112
I16
I615
I12
I16
I12
F80.400634765625
tp8
a(I112
I12
I615
I12
I16
I12
F80.42858123779297
tp9
a(I114
I16
I706
I12
I16
I12
F80.45761108398438
tp10
a(I116
I14
I706
I12
I16
I12
F80.49225616455078
tp11
a(I118
I14
I706
I12
I16
I12
F80.52558898925781
tp12
a(I118
I12
I452
I12
I16
I12
F80.55744171142578
tp13
a(I118
I14
I706
I12
I16
I12
F80.59143829345703
tp14
a(I120
I14
I615
I12
I16
I12
F80.60359954833984
tp15
a(I118
I16
I530
I12
I16
I12
F80.63895416259766
tp16
a(I118
I12
I530
I12
I16
I12
F80.67385864257812
tp17
a(I120
I14
I615
I12
I16
I12
F80.7018814086914
tp18
a(I120
I12
I706
I12
I16
I12
F80.77308654785156
tp19
a(I122
I8
I530
I12
I16
I12
F80.8013687133789
tp20
a(I136
I16
I706
I12
I16
I12
F80.83199310302734
tp21
a(I148
I18
I530
I12
I16
I12
F80.86634063720703
tp22
a(I166
I22
I530
I12
I16
I12
F80.89720916748047
tp23
a(I182
I28
I530
I12
I16
I12
F80.92919158935547
tp24
a(I196
I36
I706
I12
I16
I12
F80.96228790283203
tp25
a(I212
I40
I530
I12
I16
I12
F80.99724578857422
tp26
a(I224
I48
I804
I12
I16
I12
F81.02493286132812
tp27
a(I234
I50
I615
I12
I16
I12
F81.05643463134766
tp28
a(I240
I54
I530
I12
I16
I12
F81.07485961914062
tp29
a(I252
I60
I615
I12
I16
I12
F81.10687255859375
tp30
a(I262
I62
I804
I12
I16
I12
F81.14228057861328
tp31
a(I270
I66
I706
I12
I16
I12
F81.17266845703125
tp32
a(I280
I70
I530
I12
I16
I12
F81.20507049560547
tp33
a(I294
I74
I804
I12
I16
I12
F81.2394790649414
tp34
a(I306
I78
I615
I12
I16
I12
F81.27091217041016
tp35
a(I316
I82
I907
I12
I16
I12
F81.30198669433594
tp36
a(I330
I86
I530
I12
I16
I12
F81.33599853515625
tp37
a(I334
I90
I530
I12
I16
I12
F81.37024688720703
tp38
a(I344
I94
I804
I12
I16
I12
F81.39888763427734
tp39
a(I356
I100
I706
I12
I16
I12
F81.43131256103516
tp40
a(I360
I102
I706
I12
I16
I12
F81.44441986083984
tp41
a(I374
I110
I804
I12
I16
I12
F81.49591064453125
tp42
a(I378
I110
I706
I12
I16
I12
F81.5181655883789
tp43
a(I390
I114
I615
I12
I16
I12
F81.54307556152344
tp44
a(I400
I122
I907
I12
I16
I12
F81.57425689697266
tp45
a(I412
I124
I615
I12
I16
I12
F81.60953521728516
tp46
a(I420
I126
I615
I12
I16
I12
F81.6429672241211
tp47
a(I430
I132
I804
I12
I16
I12
F81.67388916015625
tp48
a(I438
I134
I615
I12
I16
I12
F81.70703887939453
tp49
a(I448
I140
I907
I12
I16
I12
F81.7417984008789
tp50
a(I456
I146
I804
I12
I16
I12
F81.7703857421875
tp51
a(I466
I146
I530
I12
I16
I12
F81.8018798828125
tp52
a(I474
I152
I615
I12
I16
I12
F81.84037017822266
tp53
a(I484
I158
I804
I12
I16
I12
F81.8675308227539
tp54
a(I496
I160
I530
I12
I16
I12
F81.89749908447266
tp55
a(I500
I164
I530
I12
I16
I12
F81.91556549072266
tp56
a(I510
I170
I706
I12
I16
I12
F81.96465301513672
tp57
a(I514
I172
I706
I12
I16
I12
F81.98460388183594
tp58
a(I524
I174
I530
I12
I16
I12
F82.01551055908203
tp59
a(I532
I180
I706
I12
I16
I12
F82.0460205078125
tp60
a(I538
I184
I804
I12
I16
I12
F82.07975006103516
tp61
a(I548
I186
I615
I12
I16
I12
F82.11538696289062
tp62
a(I556
I194
I706
I12
I16
I12
F82.14247131347656
tp63
a(I564
I196
I706
I12
I16
I12
F82.17512512207031
tp64
a(I572
I198
I530
I12
I16
I12
F82.21356201171875
tp65
a(I582
I202
I615
I12
I16
I12
F82.23976135253906
tp66
a(I590
I204
I804
I12
I16
I12
F82.2740478515625
tp67
a(I590
I206
I615
I12
I16
I12
F82.2872314453125
tp68
a(I598
I210
I530
I12
I16
I12
F82.3194351196289
tp69
a(I608
I214
I530
I12
I16
I12
F82.36963653564453
tp70
a(I612
I216
I530
I12
I16
I12
F82.38737487792969
tp71
a(I618
I220
I706
I12
I16
I12
F82.41740417480469
tp72
a(I622
I220
I706
I12
I16
I12
F82.4505615234375
tp73
a(I628
I218
I530
I12
I16
I12
F82.48650360107422
tp74
a(I630
I222
I615
I12
I16
I12
F82.5149154663086
tp75
a(I634
I222
I530
I12
I16
I12
F82.54496765136719
tp76
a(I636
I228
I452
I12
I16
I12
F82.5803451538086
tp77
a(I638
I228
I530
I12
I16
I12
F82.60982513427734
tp78
a(I640
I226
I530
I12
I16
I12
F82.64238739013672
tp79
a(I644
I222
I907
I12
I16
I12
F82.68085479736328
tp80
a(I648
I228
I530
I12
I16
I12
F82.70904541015625
tp81
a(I648
I226
I706
I12
I16
I12
F82.73920440673828
tp82
a(I650
I230
I615
I12
I16
I12
F82.77510070800781
tp83
a(I654
I228
I615
I12
I16
I12
F82.79000091552734
tp84
a(I654
I232
I706
I12
I16
I12
F82.8381118774414
tp85
a(I656
I232
I706
I12
I16
I12
F82.85938262939453
tp86
a(I658
I234
I530
I12
I16
I12
F82.8872299194336
tp87
a(I662
I232
I615
I12
I16
I12
F82.91815948486328
tp88
a(I642
I210
I1134
I12
I16
I12
F82.95720672607422
tp89
a(I68
I38
I1017
I12
I16
I12
F82.9834213256836
tp90
a(I634
I24
I530
I12
I16
I12
F83.01377868652344
tp91
a(I68
I38
I1017
I12
I16
I12
F83.05392456054688
tp92
a(I632
I26
I530
I12
I16
I12
F83.08626556396484
tp93
a(I66
I42
I530
I12
I16
I12
F83.113525390625
tp94
a(I632
I26
I530
I12
I16
I12
F83.14717102050781
tp95
a(I68
I38
I1017
I12
I16
I12
F83.16226959228516
tp96
a(I632
I26
I530
I12
I16
I12
F83.21061706542969
tp97
a(I632
I26
I706
I12
I16
I12
F83.24150848388672
tp98
a(I68
I36
I1017
I12
I16
I12
F83.25973510742188
tp99
a(I632
I26
I530
I12
I16
I12
F83.2886734008789
tp100
a(I240
I438
I530
I12
I16
I12
F83.33012390136719
tp101
a(I632
I26
I530
I12
I16
I12
F83.35581970214844
tp102
a(I630
I30
I1134
I12
I16
I12
F83.38867950439453
tp103
a(I632
I26
I615
I12
I16
I12
F83.42481231689453
tp104
a(I240
I438
I530
I12
I16
I12
F83.45792388916016
tp105
a(I64
I42
I530
I12
I16
I12
F83.48487854003906
tp106
a(I632
I26
I530
I12
I16
I12
F83.51815032958984
tp107
a(I66
I42
I530
I12
I16
I12
F83.55387115478516
tp108
a(I662
I256
I706
I12
I16
I12
F83.58280944824219
tp109
a(I658
I258
I530
I12
I16
I12
F83.61282348632812
tp110
a(I662
I250
I907
I12
I16
I12
F83.64883422851562
tp111
a(I654
I254
I452
I12
I16
I12
F83.67872619628906
tp112
a(I654
I254
I615
I12
I16
I12
F83.70975494384766
tp113
a(I654
I252
I452
I12
I16
I12
F83.72801971435547
tp114
a(I650
I256
I530
I12
I16
I12
F83.76099395751953
tp115
a(I646
I256
I615
I12
I16
I12
F83.79674530029297
tp116
a(I646
I256
I530
I12
I16
I12
F83.82785034179688
tp117
a(I642
I254
I615
I12
I16
I12
F83.85640716552734
tp118
a(I640
I254
I530
I12
I16
I12
F83.89143371582031
tp119
a(I636
I254
I615
I12
I16
I12
F83.92744445800781
tp120
a(I636
I256
I530
I12
I16
I12
F83.95478057861328
tp121
a(I634
I252
I452
I12
I16
I12
F83.98719024658203
tp122
a(I632
I252
I615
I12
I16
I12
F84.00354766845703
tp123
a(I630
I252
I615
I12
I16
I12
F84.05180358886719
tp124
a(I628
I252
I615
I12
I16
I12
F84.0661849975586
tp125
a(I628
I252
I530
I12
I16
I12
F84.09859466552734
tp126
a(I624
I250
I530
I12
I16
I12
F84.13050842285156
tp127
a(I620
I250
I706
I12
I16
I12
F84.16500854492188
tp128
a(I622
I250
I615
I12
I16
I12
F84.1811294555664
tp129
a(I616
I248
I706
I12
I16
I12
F84.22962951660156
tp130
a(I614
I246
I706
I12
I16
I12
F84.27838897705078
tp131
a(I612
I244
I530
I12
I16
I12
F84.31168365478516
tp132
a(I608
I242
I530
I12
I16
I12
F84.3756103515625
tp133
a(I604
I240
I615
I12
I16
I12
F84.40743255615234
tp134
a(I606
I240
I615
I12
I16
I12
F84.43858337402344
tp135
a(I604
I240
I615
I12
I16
I12
F84.45782470703125
tp136
a(I606
I238
I530
I12
I16
I12
F84.5078353881836
tp137
a(I604
I236
I615
I12
I16
I12
F84.54012298583984
tp138
a(I602
I234
I530
I12
I16
I12
F84.57157135009766
tp139
a(I604
I232
I530
I12
I16
I12
F84.60221862792969
tp140
a(I602
I232
I530
I12
I16
I12
F84.62128448486328
tp141
a(I602
I228
I530
I12
I16
I12
F84.65153503417969
tp142
a(I600
I226
I530
I12
I16
I12
F84.68065643310547
tp143
a(I600
I226
I804
I12
I16
I12
F84.74715423583984
tp144
a(I598
I222
I530
I12
I16
I12
F84.7780532836914
tp145
a(I598
I220
I530
I12
I16
I12
F84.81739044189453
tp146
a(I598
I220
I615
I12
I16
I12
F84.84345245361328
tp147
a(I598
I218
I615
I12
I16
I12
F84.8743667602539
tp148
a(I596
I218
I706
I12
I16
I12
F84.91119384765625
tp149
a(I598
I216
I706
I12
I16
I12
F84.94328308105469
tp150
a(I598
I214
I706
I12
I16
I12
F84.97382354736328
tp151
a(I596
I212
I706
I12
I16
I12
F85.02228546142578
tp152
a(I598
I208
I530
I12
I16
I12
F85.07089233398438
tp153
a(I596
I210
I530
I12
I16
I12
F85.10094451904297
tp154
a(I598
I208
I615
I12
I16
I12
F85.11968231201172
tp155
a(I598
I208
I706
I12
I16
I12
F85.14986419677734
tp156
a(I598
I206
I530
I12
I16
I12
F85.18789672851562
tp157
a(I600
I206
I706
I12
I16
I12
F85.2176513671875
tp158
a(I598
I202
I530
I12
I16
I12
F85.2496337890625
tp159
a(I600
I204
I615
I12
I16
I12
F85.28413391113281
tp160
a(I602
I202
I530
I12
I16
I12
F85.34584045410156
tp161
a(I602
I200
I530
I12
I16
I12
F85.3790512084961
tp162
a(I602
I200
I706
I12
I16
I12
F85.39454650878906
tp163
a(I604
I198
I615
I12
I16
I12
F85.44332885742188
tp164
a(I604
I200
I706
I12
I16
I12
F85.47396850585938
tp165
a(I606
I198
I615
I12
I16
I12
F85.49159240722656
tp166
a(I608
I198
I530
I12
I16
I12
F85.52102661132812
tp167
a(I608
I196
I530
I12
I16
I12
F85.56123352050781
tp168
a(I606
I196
I452
I12
I16
I12
F85.59380340576172
tp169
a(I610
I196
I615
I12
I16
I12
F85.6209487915039
tp170
a(I610
I194
I615
I12
I16
I12
F85.65392303466797
tp171
a(I612
I196
I615
I12
I16
I12
F85.68850708007812
tp172
a(I610
I196
I706
I12
I16
I12
F85.71914672851562
tp173
a(I614
I196
I530
I12
I16
I12
F85.7516098022461
tp174
a(I614
I194
I615
I12
I16
I12
F85.78790283203125
tp175
a(I614
I194
I706
I12
I16
I12
F85.8450698852539
tp176
a(I614
I196
I706
I12
I16
I12
F85.87872314453125
tp177
a(I616
I196
I530
I12
I16
I12
F85.91140747070312
tp178
a(I618
I194
I530
I12
I16
I12
F85.9432373046875
tp179
a(I618
I196
I530
I12
I16
I12
F85.96257019042969
tp180
a(I616
I194
I615
I12
I16
I12
F85.99346160888672
tp181
a(I620
I196
I530
I12
I16
I12
F86.0279541015625
tp182
a(I64
I32
I530
I12
I16
I12
F86.06204986572266
tp183
a(I616
I192
I530
I12
I16
I12
F86.09044647216797
tp184
a(I618
I194
I615
I12
I16
I12
F86.1230697631836
tp185
a(I616
I194
I615
I12
I16
I12
F86.16081237792969
tp186
a(I616
I192
I530
I12
I16
I12
F86.2182846069336
tp187
a(I616
I192
I615
I12
I16
I12
F86.28435516357422
tp188
a(I616
I194
I615
I12
I16
I12
F86.31714630126953
tp189
a(I620
I196
I615
I12
I16
I12
F86.33409118652344
tp190
a(I618
I194
I615
I12
I16
I12
F86.36417388916016
tp191
a(I616
I194
I706
I12
I16
I12
F86.3972396850586
tp192
a(I618
I196
I530
I12
I16
I12
F86.43307495117188
tp193
a(I618
I194
I530
I12
I16
I12
F86.46229553222656
tp194
a(I618
I196
I530
I12
I16
I12
F86.49386596679688
tp195
a(I614
I194
I615
I12
I16
I12
F86.5307846069336
tp196
a(I614
I196
I615
I12
I16
I12
F86.59007263183594
tp197
a(I616
I194
I530
I12
I16
I12
F86.66117095947266
tp198
a(I614
I196
I530
I12
I16
I12
F86.68878173828125
tp199
a(I614
I196
I706
I12
I16
I12
F86.72279357910156
tp200
a(I614
I194
I530
I12
I16
I12
F86.73699188232422
tp201
a(I614
I196
I615
I12
I16
I12
F86.7854995727539
tp202
a.