(lp0
(I80
I62
I615
I12
I16
I12
F376.422607421875
tp1
a(I80
I62
I706
I12
I16
I12
F376.45147705078125
tp2
a(I78
I60
I530
I12
I16
I12
F376.48382568359375
tp3
a(I80
I62
I452
I12
I16
I12
F376.4981994628906
tp4
a(I80
I62
I615
I12
I16
I12
F376.5477600097656
tp5
a(I80
I62
I706
I12
I16
I12
F376.5784606933594
tp6
a(I80
I62
I615
I12
I16
I12
F376.6113586425781
tp7
a(I80
I60
I530
I12
I16
I12
F376.6942138671875
tp8
a(I80
I62
I615
I12
I16
I12
F376.7255859375
tp9
a(I78
I62
I615
I12
I16
I12
F376.79315185546875
tp10
a(I78
I62
I530
I12
I16
I12
F376.82342529296875
tp11
a(I80
I62
I615
I12
I16
I12
F376.8523864746094
tp12
a(I78
I62
I530
I12
I16
I12
F376.9192810058594
tp13
a(I80
I62
I615
I12
I16
I12
F376.9491882324219
tp14
a(I78
I62
I530
I12
I16
I12
F376.9673156738281
tp15
a(I80
I60
I530
I12
I16
I12
F377.0164489746094
tp16
a(I80
I62
I706
I12
I16
I12
F377.0469055175781
tp17
a(I78
I60
I530
I12
I16
I12
F377.0700378417969
tp18
a(I80
I62
I615
I12
I16
I12
F377.0980529785156
tp19
a(I80
I62
I706
I12
I16
I12
F377.1624755859375
tp20
a(I80
I62
I615
I12
I16
I12
F377.1941833496094
tp21
a(I80
I62
I706
I12
I16
I12
F377.2275085449219
tp22
a(I78
I60
I530
I12
I16
I12
F377.293701171875
tp23
a(I80
I62
I615
I12
I16
I12
F377.3221130371094
tp24
a(I82
I64
I530
I12
I16
I12
F377.4201965332031
tp25
a(I80
I62
I615
I12
I16
I12
F377.4691162109375
tp26
a(I82
I62
I530
I12
I16
I12
F377.51715087890625
tp27
a(I80
I62
I615
I12
I16
I12
F377.5660705566406
tp28
a(I80
I62
I706
I12
I16
I12
F377.58807373046875
tp29
a(I80
I62
I615
I12
I16
I12
F377.6155090332031
tp30
a(I82
I62
I530
I12
I16
I12
F377.64642333984375
tp31
a(I80
I62
I615
I12
I16
I12
F377.6853942871094
tp32
a(I78
I62
I530
I12
I16
I12
F377.71307373046875
tp33
a(I80
I64
I615
I12
I16
I12
F377.7459716796875
tp34
a(I80
I62
I615
I12
I16
I12
F377.7806701660156
tp35
a(I76
I62
I530
I12
I16
I12
F377.8418273925781
tp36
a(I80
I62
I706
I12
I16
I12
F377.87579345703125
tp37
a(I80
I62
I615
I12
I16
I12
F377.9385681152344
tp38
a(I80
I62
I530
I12
I16
I12
F378.0862121582031
tp39
a(I80
I64
I615
I12
I16
I12
F378.1145935058594
tp40
a(I80
I62
I615
I12
I16
I12
F378.1474304199219
tp41
a(I80
I60
I530
I12
I16
I12
F378.1794738769531
tp42
a(I80
I62
I706
I12
I16
I12
F378.1958312988281
tp43
a(I80
I62
I615
I12
I16
I12
F378.24322509765625
tp44
a(I78
I62
I530
I12
I16
I12
F378.2762451171875
tp45
a(I80
I62
I615
I12
I16
I12
F378.3087158203125
tp46
a(I80
I62
I706
I12
I16
I12
F378.3406982421875
tp47
a(I80
I64
I615
I12
I16
I12
F378.3736267089844
tp48
a(I80
I62
I615
I12
I16
I12
F378.4053649902344
tp49
a(I82
I62
I530
I12
I16
I12
F378.48712158203125
tp50
a(I80
I62
I615
I12
I16
I12
F378.5185852050781
tp51
a(I82
I62
I530
I12
I16
I12
F378.5518493652344
tp52
a(I80
I62
I615
I12
I16
I12
F378.5842590332031
tp53
a(I80
I62
I706
I12
I16
I12
F378.6162414550781
tp54
a(I80
I62
I615
I12
I16
I12
F378.648681640625
tp55
a(I80
I62
I706
I12
I16
I12
F378.7625427246094
tp56
a(I80
I64
I615
I12
I16
I12
F378.79449462890625
tp57
a(I78
I60
I530
I12
I16
I12
F378.8588562011719
tp58
a(I80
I62
I615
I12
I16
I12
F378.89080810546875
tp59
a(I80
I64
I615
I12
I16
I12
F378.90716552734375
tp60
a(I80
I62
I706
I12
I16
I12
F378.9400939941406
tp61
a(I82
I62
I530
I12
I16
I12
F378.97247314453125
tp62
a(I80
I62
I706
I12
I16
I12
F379.00439453125
tp63
a(I80
I62
I615
I12
I16
I12
F379.03717041015625
tp64
a(I80
I64
I615
I12
I16
I12
F379.103271484375
tp65
a(I80
I62
I615
I12
I16
I12
F379.13348388671875
tp66
a(I78
I62
I615
I12
I16
I12
F379.1510925292969
tp67
a(I80
I60
I530
I12
I16
I12
F379.2009582519531
tp68
a(I80
I62
I706
I12
I16
I12
F379.2315979003906
tp69
a(I76
I58
I706
I12
I16
I12
F379.2509765625
tp70
a(I78
I62
I615
I12
I16
I12
F379.2810363769531
tp71
a(I80
I62
I615
I12
I16
I12
F379.3141784667969
tp72
a(I80
I62
I706
I12
I16
I12
F379.37713623046875
tp73
a(I80
I62
I615
I12
I16
I12
F379.4100341796875
tp74
a(I80
I62
I706
I12
I16
I12
F379.47509765625
tp75
a(I80
I62
I615
I12
I16
I12
F379.5046081542969
tp76
a(I80
I62
I530
I12
I16
I12
F379.5433044433594
tp77
a(I80
I62
I615
I12
I16
I12
F379.572509765625
tp78
a(I80
I62
I530
I12
I16
I12
F379.6053466796875
tp79
a(I80
I62
I706
I12
I16
I12
F379.6398620605469
tp80
a(I80
I62
I615
I12
I16
I12
F379.70147705078125
tp81
a(I80
I60
I530
I12
I16
I12
F379.73272705078125
tp82
a(I80
I64
I615
I12
I16
I12
F379.7507629394531
tp83
a(I80
I62
I615
I12
I16
I12
F379.79840087890625
tp84
a(I82
I62
I530
I12
I16
I12
F379.8778076171875
tp85
a(I80
I62
I615
I12
I16
I12
F379.94781494140625
tp86
a(I76
I62
I530
I12
I16
I12
F380.0450744628906
tp87
a(I82
I62
I530
I12
I16
I12
F380.0736999511719
tp88
a(I80
I62
I615
I12
I16
I12
F380.10675048828125
tp89
a(I82
I62
I615
I12
I16
I12
F380.1219482421875
tp90
a(I80
I62
I706
I12
I16
I12
F380.1708679199219
tp91
a(I80
I60
I530
I12
I16
I12
F380.2017517089844
tp92
a(I80
I62
I615
I12
I16
I12
F380.22332763671875
tp93
a(I80
I60
I530
I12
I16
I12
F380.3828430175781
tp94
a(I78
I62
I615
I12
I16
I12
F380.41925048828125
tp95
a(I80
I62
I615
I12
I16
I12
F380.44580078125
tp96
a(I80
I62
I530
I12
I16
I12
F380.54278564453125
tp97
a(I78
I62
I615
I12
I16
I12
F380.5726013183594
tp98
a(I80
I62
I615
I12
I16
I12
F380.5919494628906
tp99
a(I80
I62
I706
I12
I16
I12
F380.6584777832031
tp100
a(I80
I62
I530
I12
I16
I12
F380.6920166015625
tp101
a(I80
I62
I615
I12
I16
I12
F380.7209777832031
tp102
a(I80
I62
I452
I12
I16
I12
F380.848876953125
tp103
a(I80
I62
I615
I12
I16
I12
F380.8890380859375
tp104
a.