(lp0
(I48
I22
I1017
I12
I16
I12
F315.92535400390625
tp1
a(I50
I22
I1134
I12
I16
I12
F315.96124267578125
tp2
a(I48
I20
I907
I12
I16
I12
F315.9915771484375
tp3
a(I46
I22
I907
I12
I16
I12
F316.02484130859375
tp4
a(I48
I20
I907
I12
I16
I12
F316.0543518066406
tp5
a(I46
I24
I1134
I12
I16
I12
F316.0704345703125
tp6
a(I46
I22
I1134
I12
I16
I12
F316.1053466796875
tp7
a(I48
I24
I1134
I12
I16
I12
F316.138427734375
tp8
a(I48
I20
I907
I12
I16
I12
F316.1689147949219
tp9
a(I46
I22
I907
I12
I16
I12
F316.201416015625
tp10
a(I48
I22
I907
I12
I16
I12
F316.2341003417969
tp11
a(I48
I20
I706
I12
I16
I12
F316.2657165527344
tp12
a(I48
I22
I907
I12
I16
I12
F316.2966613769531
tp13
a(I46
I24
I1256
I12
I16
I12
F316.3286437988281
tp14
a(I48
I20
I907
I12
I16
I12
F316.3622741699219
tp15
a(I46
I20
I706
I12
I16
I12
F316.393310546875
tp16
a(I48
I22
I1017
I12
I16
I12
F316.427001953125
tp17
a(I48
I20
I804
I12
I16
I12
F316.4626159667969
tp18
a(I46
I24
I1134
I12
I16
I12
F316.47479248046875
tp19
a(I650
I434
I706
I12
I16
I12
F316.5104675292969
tp20
a(I46
I22
I907
I12
I16
I12
F316.5570983886719
tp21
a(I48
I20
I804
I12
I16
I12
F316.573974609375
tp22
a(I48
I20
I1017
I12
I16
I12
F316.60858154296875
tp23
a(I46
I22
I804
I12
I16
I12
F316.6439514160156
tp24
a(I46
I22
I1134
I12
I16
I12
F316.670654296875
tp25
a(I48
I22
I1017
I12
I16
I12
F316.7046813964844
tp26
a(I48
I20
I907
I12
I16
I12
F316.7408447265625
tp27
a(I48
I22
I907
I12
I16
I12
F316.76959228515625
tp28
a(I46
I22
I907
I12
I16
I12
F316.8376770019531
tp29
a(I240
I424
I530
I12
I16
I12
F316.8634338378906
tp30
a(I46
I22
I907
I12
I16
I12
F316.8957214355469
tp31
a(I48
I22
I1017
I12
I16
I12
F316.91357421875
tp32
a(I22
I54
I706
I12
I16
I12
F316.96197509765625
tp33
a(I8
I456
I706
I12
I16
I12
F316.9928283691406
tp34
a(I50
I22
I907
I12
I16
I12
F317.0103759765625
tp35
a(I240
I424
I804
I12
I16
I12
F317.04241943359375
tp36
a(I28
I44
I907
I12
I16
I12
F317.0760192871094
tp37
a(I48
I20
I1017
I12
I16
I12
F317.11083984375
tp38
a(I48
I20
I907
I12
I16
I12
F317.1387939453125
tp39
a(I634
I48
I1017
I12
I16
I12
F317.1698303222656
tp40
a(I48
I20
I706
I12
I16
I12
F317.2068176269531
tp41
a(I124
I424
I1017
I12
I16
I12
F317.2365417480469
tp42
a(I46
I22
I1134
I12
I16
I12
F317.2672119140625
tp43
a(I48
I22
I907
I12
I16
I12
F317.3346252441406
tp44
a(I242
I424
I706
I12
I16
I12
F317.3650817871094
tp45
a(I46
I22
I907
I12
I16
I12
F317.39984130859375
tp46
a(I48
I20
I1017
I12
I16
I12
F317.4156494140625
tp47
a(I48
I20
I907
I12
I16
I12
F317.44500732421875
tp48
a(I46
I22
I1134
I12
I16
I12
F317.4875793457031
tp49
a(I46
I24
I1134
I12
I16
I12
F317.5122375488281
tp50
a(I240
I424
I804
I12
I16
I12
F317.54595947265625
tp51
a(I50
I20
I907
I12
I16
I12
F317.5800476074219
tp52
a(I48
I20
I907
I12
I16
I12
F317.6092529296875
tp53
a(I46
I22
I907
I12
I16
I12
F317.64208984375
tp54
a(I12
I456
I530
I12
I16
I12
F317.6766052246094
tp55
a(I20
I446
I530
I12
I16
I12
F317.7095642089844
tp56
a(I34
I440
I530
I12
I16
I12
F317.7386169433594
tp57
a(I46
I436
I530
I12
I16
I12
F317.7749328613281
tp58
a(I54
I434
I615
I12
I16
I12
F317.7847900390625
tp59
a(I72
I426
I530
I12
I16
I12
F317.8352966308594
tp60
a(I74
I426
I615
I12
I16
I12
F317.8556213378906
tp61
a(I80
I426
I615
I12
I16
I12
F317.8880920410156
tp62
a(I86
I424
I615
I12
I16
I12
F317.9172668457031
tp63
a(I90
I420
I530
I12
I16
I12
F317.953857421875
tp64
a(I98
I420
I615
I12
I16
I12
F317.9815673828125
tp65
a(I106
I420
I615
I12
I16
I12
F318.0130615234375
tp66
a(I118
I414
I706
I12
I16
I12
F318.0469970703125
tp67
a(I126
I412
I706
I12
I16
I12
F318.07861328125
tp68
a(I140
I406
I706
I12
I16
I12
F318.1119079589844
tp69
a(I152
I400
I804
I12
I16
I12
F318.14447021484375
tp70
a(I162
I392
I530
I12
I16
I12
F318.1773986816406
tp71
a(I174
I388
I615
I12
I16
I12
F318.2082214355469
tp72
a(I188
I382
I804
I12
I16
I12
F318.24188232421875
tp73
a(I196
I376
I615
I12
I16
I12
F318.25848388671875
tp74
a(I202
I374
I706
I12
I16
I12
F318.2909240722656
tp75
a(I216
I368
I615
I12
I16
I12
F318.3366394042969
tp76
a(I222
I366
I615
I12
I16
I12
F318.35498046875
tp77
a(I232
I366
I530
I12
I16
I12
F318.3856201171875
tp78
a(I242
I356
I804
I12
I16
I12
F318.419189453125
tp79
a(I252
I352
I706
I12
I16
I12
F318.4568786621094
tp80
a(I264
I346
I706
I12
I16
I12
F318.4856872558594
tp81
a(I276
I342
I804
I12
I16
I12
F318.5168151855469
tp82
a(I286
I336
I804
I12
I16
I12
F318.5541687011719
tp83
a(I298
I328
I706
I12
I16
I12
F318.5804748535156
tp84
a(I308
I326
I804
I12
I16
I12
F318.6127014160156
tp85
a(I314
I322
I804
I12
I16
I12
F318.6265869140625
tp86
a(I326
I316
I804
I12
I16
I12
F318.6617431640625
tp87
a(I340
I308
I706
I12
I16
I12
F318.7087707519531
tp88
a(I346
I304
I706
I12
I16
I12
F318.72479248046875
tp89
a(I356
I300
I706
I12
I16
I12
F318.76031494140625
tp90
a(I366
I298
I530
I12
I16
I12
F318.7905578613281
tp91
a(I374
I290
I615
I12
I16
I12
F318.8218688964844
tp92
a(I388
I284
I804
I12
I16
I12
F318.8551025390625
tp93
a(I400
I278
I804
I12
I16
I12
F318.8861999511719
tp94
a(I408
I274
I706
I12
I16
I12
F318.9207763671875
tp95
a(I420
I266
I804
I12
I16
I12
F318.9524230957031
tp96
a(I428
I262
I706
I12
I16
I12
F318.9872131347656
tp97
a(I440
I254
I530
I12
I16
I12
F319.0184326171875
tp98
a(I452
I250
I804
I12
I16
I12
F319.048095703125
tp99
a(I454
I246
I615
I12
I16
I12
F319.08294677734375
tp100
a(I462
I242
I706
I12
I16
I12
F319.0986328125
tp101
a(I472
I238
I615
I12
I16
I12
F319.1301574707031
tp102
a(I484
I232
I706
I12
I16
I12
F319.16119384765625
tp103
a(I492
I224
I706
I12
I16
I12
F319.1948547363281
tp104
a(I502
I220
I706
I12
I16
I12
F319.22540283203125
tp105
a(I508
I220
I530
I12
I16
I12
F319.2488098144531
tp106
a(I512
I212
I615
I12
I16
I12
F319.2747497558594
tp107
a(I522
I208
I706
I12
I16
I12
F319.3103332519531
tp108
a(I530
I204
I706
I12
I16
I12
F319.3423156738281
tp109
a(I538
I196
I804
I12
I16
I12
F319.3715515136719
tp110
a(I546
I192
I706
I12
I16
I12
F319.4073486328125
tp111
a(I554
I188
I706
I12
I16
I12
F319.4385070800781
tp112
a(I560
I182
I615
I12
I16
I12
F319.46990966796875
tp113
a(I572
I178
I530
I12
I16
I12
F319.501708984375
tp114
a(I578
I172
I706
I12
I16
I12
F319.5346374511719
tp115
a(I582
I172
I615
I12
I16
I12
F319.5507507324219
tp116
a(I592
I164
I706
I12
I16
I12
F319.6009216308594
tp117
a(I600
I160
I615
I12
I16
I12
F319.63055419921875
tp118
a(I606
I154
I530
I12
I16
I12
F319.66314697265625
tp119
a(I612
I150
I615
I12
I16
I12
F319.6943359375
tp120
a(I614
I148
I706
I12
I16
I12
F319.71624755859375
tp121
a(I622
I144
I530
I12
I16
I12
F319.7455139160156
tp122
a(I626
I138
I706
I12
I16
I12
F319.7790222167969
tp123
a(I636
I136
I530
I12
I16
I12
F319.81402587890625
tp124
a(I642
I132
I530
I12
I16
I12
F319.8424072265625
tp125
a(I646
I126
I615
I12
I16
I12
F319.8746337890625
tp126
a(I654
I120
I907
I12
I16
I12
F319.9092712402344
tp127
a(I658
I120
I706
I12
I16
I12
F319.9202575683594
tp128
a(I46
I22
I907
I12
I16
I12
F319.97088623046875
tp129
a(I50
I22
I1017
I12
I16
I12
F319.98736572265625
tp130
a(I46
I22
I1017
I12
I16
I12
F320.01824951171875
tp131
a(I48
I22
I1017
I12
I16
I12
F320.067626953125
tp132
a(I48
I22
I907
I12
I16
I12
F320.0870056152344
tp133
a(I46
I22
I1134
I12
I16
I12
F320.1012878417969
tp134
a(I48
I22
I907
I12
I16
I12
F320.137451171875
tp135
a(I48
I20
I706
I12
I16
I12
F320.1664123535156
tp136
a(I46
I22
I1017
I12
I16
I12
F320.1961669921875
tp137
a(I48
I22
I907
I12
I16
I12
F320.21588134765625
tp138
a(I48
I24
I1134
I12
I16
I12
F320.2440185546875
tp139
a(I48
I22
I1017
I12
I16
I12
F320.2794494628906
tp140
a(I48
I20
I804
I12
I16
I12
F320.31597900390625
tp141
a(I48
I22
I907
I12
I16
I12
F320.3431091308594
tp142
a(I242
I424
I615
I12
I16
I12
F320.3758239746094
tp143
a(I48
I20
I706
I12
I16
I12
F320.4134521484375
tp144
a(I48
I20
I907
I12
I16
I12
F320.4384765625
tp145
a(I46
I22
I907
I12
I16
I12
F320.47088623046875
tp146
a(I48
I22
I1017
I12
I16
I12
F320.5074462890625
tp147
a(I46
I22
I907
I12
I16
I12
F320.5694580078125
tp148
a(I48
I20
I1017
I12
I16
I12
F320.60498046875
tp149
a(I48
I22
I1017
I12
I16
I12
F320.6371154785156
tp150
a(I48
I20
I907
I12
I16
I12
F320.6907043457031
tp151
a(I48
I20
I804
I12
I16
I12
F320.7160339355469
tp152
a(I48
I20
I1017
I12
I16
I12
F320.74652099609375
tp153
a(I46
I22
I1134
I12
I16
I12
F320.7871398925781
tp154
a(I48
I28
I804
I12
I16
I12
F320.8179016113281
tp155
a(I8
I456
I706
I12
I16
I12
F320.84710693359375
tp156
a(I10
I452
I530
I12
I16
I12
F320.88006591796875
tp157
a(I48
I20
I907
I12
I16
I12
F320.9151916503906
tp158
a(I48
I22
I1017
I12
I16
I12
F320.9418640136719
tp159
a(I48
I20
I706
I12
I16
I12
F320.9776611328125
tp160
a(I48
I16
I530
I12
I16
I12
F321.0108947753906
tp161
a(I8
I456
I615
I12
I16
I12
F321.0386962890625
tp162
a(I48
I22
I907
I12
I16
I12
F321.05535888671875
tp163
a(I46
I24
I1134
I12
I16
I12
F321.0868835449219
tp164
a(I8
I456
I706
I12
I16
I12
F321.1357116699219
tp165
a(I48
I22
I907
I12
I16
I12
F321.1517028808594
tp166
a(I46
I22
I1134
I12
I16
I12
F321.18450927734375
tp167
a(I48
I20
I706
I12
I16
I12
F321.21429443359375
tp168
a(I48
I22
I907
I12
I16
I12
F321.2508850097656
tp169
a(I46
I22
I907
I12
I16
I12
F321.2854309082031
tp170
a(I46
I22
I1134
I12
I16
I12
F321.31304931640625
tp171
a(I48
I20
I706
I12
I16
I12
F321.346435546875
tp172
a(I44
I24
I1134
I12
I16
I12
F321.3832702636719
tp173
a(I30
I46
I706
I12
I16
I12
F321.410400390625
tp174
a(I46
I22
I1134
I12
I16
I12
F321.4437561035156
tp175
a(I48
I22
I1017
I12
I16
I12
F321.4623718261719
tp176
a(I48
I20
I804
I12
I16
I12
F321.50732421875
tp177
a(I50
I20
I804
I12
I16
I12
F321.5411376953125
tp178
a(I46
I24
I1134
I12
I16
I12
F321.5570983886719
tp179
a(I46
I20
I804
I12
I16
I12
F321.59161376953125
tp180
a(I48
I22
I1017
I12
I16
I12
F321.62158203125
tp181
a(I46
I22
I907
I12
I16
I12
F321.6582946777344
tp182
a(I8
I456
I706
I12
I16
I12
F321.7190246582031
tp183
a(I48
I20
I804
I12
I16
I12
F321.755126953125
tp184
a(I6
I450
I615
I12
I16
I12
F321.7848205566406
tp185
a(I46
I22
I1134
I12
I16
I12
F321.81622314453125
tp186
a(I48
I20
I804
I12
I16
I12
F321.8481750488281
tp187
a(I636
I48
I615
I12
I16
I12
F321.8797302246094
tp188
a(I46
I24
I1134
I12
I16
I12
F321.91351318359375
tp189
a(I50
I20
I804
I12
I16
I12
F321.92919921875
tp190
a(I48
I22
I907
I12
I16
I12
F321.97735595703125
tp191
a(I48
I22
I1017
I12
I16
I12
F322.009033203125
tp192
a(I48
I20
I907
I12
I16
I12
F322.025634765625
tp193
a(I48
I22
I1017
I12
I16
I12
F322.060546875
tp194
a(I46
I20
I804
I12
I16
I12
F322.0922546386719
tp195
a(I48
I22
I907
I12
I16
I12
F322.1208190917969
tp196
a(I48
I22
I1017
I12
I16
I12
F322.1876220703125
tp197
a(I46
I28
I530
I12
I16
I12
F322.22113037109375
tp198
a(I46
I24
I1134
I12
I16
I12
F322.2510986328125
tp199
a(I10
I450
I615
I12
I16
I12
F322.2835998535156
tp200
a(I46
I22
I907
I12
I16
I12
F322.3205871582031
tp201
a(I46
I24
I1134
I12
I16
I12
F322.3509826660156
tp202
a(I48
I20
I804
I12
I16
I12
F322.38092041015625
tp203
a(I48
I28
I530
I12
I16
I12
F322.4317932128906
tp204
a(I48
I22
I907
I12
I16
I12
F322.46124267578125
tp205
a(I48
I20
I804
I12
I16
I12
F322.4956970214844
tp206
a.