(lp0
(I76
I24
I615
I12
I16
I12
F213.1775665283203
tp1
a(I74
I24
I530
I12
I16
I12
F213.2067413330078
tp2
a(I76
I24
I615
I12
I16
I12
F213.24037170410156
tp3
a(I74
I24
I452
I12
I16
I12
F213.30279541015625
tp4
a(I76
I24
I615
I12
I16
I12
F213.3710174560547
tp5
a(I74
I24
I452
I12
I16
I12
F213.43359375
tp6
a(I74
I24
I530
I12
I16
I12
F213.53111267089844
tp7
a(I76
I24
I615
I12
I16
I12
F213.56101989746094
tp8
a(I74
I24
I452
I12
I16
I12
F213.6090850830078
tp9
a(I78
I24
I530
I12
I16
I12
F213.64358520507812
tp10
a(I74
I24
I452
I12
I16
I12
F213.6767578125
tp11
a(I76
I24
I615
I12
I16
I12
F213.70938110351562
tp12
a(I76
I22
I615
I12
I16
I12
F213.7449951171875
tp13
a(I76
I24
I615
I12
I16
I12
F213.77581787109375
tp14
a(I50
I22
I615
I12
I16
I12
F213.87481689453125
tp15
a(I76
I24
I615
I12
I16
I12
F213.90370178222656
tp16
a(I76
I24
I530
I12
I16
I12
F213.95118713378906
tp17
a(I74
I24
I530
I12
I16
I12
F213.9808349609375
tp18
a(I76
I22
I615
I12
I16
I12
F214.0164337158203
tp19
a(I76
I24
I615
I12
I16
I12
F214.0499267578125
tp20
a(I74
I24
I452
I12
I16
I12
F214.08091735839844
tp21
a(I76
I24
I530
I12
I16
I12
F214.1150665283203
tp22
a(I50
I22
I530
I12
I16
I12
F214.14761352539062
tp23
a(I76
I24
I615
I12
I16
I12
F214.17660522460938
tp24
a(I74
I24
I452
I12
I16
I12
F214.27468872070312
tp25
a(I76
I24
I615
I12
I16
I12
F214.30482482910156
tp26
a(I74
I24
I452
I12
I16
I12
F214.3247528076172
tp27
a(I76
I24
I530
I12
I16
I12
F214.37020874023438
tp28
a(I76
I24
I615
I12
I16
I12
F214.4029083251953
tp29
a(I74
I24
I452
I12
I16
I12
F214.42250061035156
tp30
a(I76
I24
I615
I12
I16
I12
F214.45318603515625
tp31
a(I74
I24
I452
I12
I16
I12
F214.4886932373047
tp32
a(I76
I24
I615
I12
I16
I12
F214.521728515625
tp33
a(I74
I24
I452
I12
I16
I12
F214.5498046875
tp34
a(I76
I22
I615
I12
I16
I12
F214.58192443847656
tp35
a(I78
I22
I615
I12
I16
I12
F214.6199951171875
tp36
a(I82
I24
I615
I12
I16
I12
F214.64703369140625
tp37
a(I86
I26
I706
I12
I16
I12
F214.67835998535156
tp38
a(I94
I30
I615
I12
I16
I12
F214.7174072265625
tp39
a(I106
I32
I615
I12
I16
I12
F214.7433319091797
tp40
a(I114
I34
I804
I12
I16
I12
F214.77467346191406
tp41
a(I126
I36
I1017
I12
I16
I12
F214.81021118164062
tp42
a(I134
I40
I452
I12
I16
I12
F214.82534790039062
tp43
a(I148
I46
I615
I12
I16
I12
F214.8574981689453
tp44
a(I152
I50
I530
I12
I16
I12
F214.89247131347656
tp45
a(I162
I50
I706
I12
I16
I12
F214.9209747314453
tp46
a(I168
I54
I706
I12
I16
I12
F214.95176696777344
tp47
a(I178
I56
I706
I12
I16
I12
F214.9915008544922
tp48
a(I184
I56
I530
I12
I16
I12
F215.01930236816406
tp49
a(I190
I62
I530
I12
I16
I12
F215.04856872558594
tp50
a(I200
I62
I706
I12
I16
I12
F215.08926391601562
tp51
a(I208
I66
I706
I12
I16
I12
F215.11550903320312
tp52
a(I218
I66
I530
I12
I16
I12
F215.14849853515625
tp53
a(I228
I70
I706
I12
I16
I12
F215.1812286376953
tp54
a(I234
I74
I615
I12
I16
I12
F215.21401977539062
tp55
a(I248
I78
I530
I12
I16
I12
F215.24520874023438
tp56
a(I256
I78
I706
I12
I16
I12
F215.27833557128906
tp57
a(I258
I80
I706
I12
I16
I12
F215.29444885253906
tp58
a(I264
I80
I615
I12
I16
I12
F215.32704162597656
tp59
a(I272
I82
I804
I12
I16
I12
F215.36427307128906
tp60
a(I282
I86
I804
I12
I16
I12
F215.3922119140625
tp61
a(I292
I88
I706
I12
I16
I12
F215.42091369628906
tp62
a(I300
I90
I706
I12
I16
I12
F215.45506286621094
tp63
a(I308
I94
I804
I12
I16
I12
F215.4877166748047
tp64
a(I316
I94
I706
I12
I16
I12
F215.5190887451172
tp65
a(I326
I96
I804
I12
I16
I12
F215.555419921875
tp66
a(I334
I100
I804
I12
I16
I12
F215.5884246826172
tp67
a(I342
I100
I804
I12
I16
I12
F215.61672973632812
tp68
a(I348
I102
I615
I12
I16
I12
F215.65098571777344
tp69
a(I356
I102
I530
I12
I16
I12
F215.66604614257812
tp70
a(I366
I106
I706
I12
I16
I12
F215.71469116210938
tp71
a(I376
I110
I530
I12
I16
I12
F215.74685668945312
tp72
a(I378
I110
I907
I12
I16
I12
F215.7633514404297
tp73
a(I386
I112
I706
I12
I16
I12
F215.79420471191406
tp74
a(I392
I116
I706
I12
I16
I12
F215.83152770996094
tp75
a(I400
I118
I706
I12
I16
I12
F215.86085510253906
tp76
a(I410
I118
I804
I12
I16
I12
F215.8919219970703
tp77
a(I418
I120
I706
I12
I16
I12
F215.9254913330078
tp78
a(I424
I122
I706
I12
I16
I12
F215.959716796875
tp79
a(I432
I124
I615
I12
I16
I12
F215.9898223876953
tp80
a(I442
I124
I706
I12
I16
I12
F216.02101135253906
tp81
a(I444
I124
I530
I12
I16
I12
F216.05880737304688
tp82
a(I454
I126
I615
I12
I16
I12
F216.08714294433594
tp83
a(I464
I130
I615
I12
I16
I12
F216.1166229248047
tp84
a(I462
I132
I615
I12
I16
I12
F216.13575744628906
tp85
a(I474
I130
I615
I12
I16
I12
F216.1824493408203
tp86
a(I480
I132
I804
I12
I16
I12
F216.20498657226562
tp87
a(I486
I132
I706
I12
I16
I12
F216.23341369628906
tp88
a(I490
I134
I530
I12
I16
I12
F216.26356506347656
tp89
a(I500
I136
I706
I12
I16
I12
F216.2993621826172
tp90
a(I510
I138
I615
I12
I16
I12
F216.33258056640625
tp91
a(I514
I142
I706
I12
I16
I12
F216.3614501953125
tp92
a(I524
I140
I530
I12
I16
I12
F216.39544677734375
tp93
a(I530
I140
I615
I12
I16
I12
F216.43150329589844
tp94
a(I532
I140
I452
I12
I16
I12
F216.45945739746094
tp95
a(I542
I144
I706
I12
I16
I12
F216.49075317382812
tp96
a(I544
I144
I615
I12
I16
I12
F216.50767517089844
tp97
a(I554
I144
I615
I12
I16
I12
F216.55645751953125
tp98
a(I554
I146
I615
I12
I16
I12
F216.5709228515625
tp99
a(I562
I144
I530
I12
I16
I12
F216.60365295410156
tp100
a(I568
I146
I706
I12
I16
I12
F216.63726806640625
tp101
a(I572
I148
I615
I12
I16
I12
F216.6707305908203
tp102
a(I580
I146
I706
I12
I16
I12
F216.7071075439453
tp103
a(I582
I148
I530
I12
I16
I12
F216.73416137695312
tp104
a(I590
I148
I706
I12
I16
I12
F216.76588439941406
tp105
a(I598
I150
I530
I12
I16
I12
F216.8032684326172
tp106
a(I602
I148
I615
I12
I16
I12
F216.8314971923828
tp107
a(I608
I148
I615
I12
I16
I12
F216.86083984375
tp108
a(I610
I150
I615
I12
I16
I12
F216.87979125976562
tp109
a(I618
I146
I530
I12
I16
I12
F216.9273681640625
tp110
a(I622
I150
I615
I12
I16
I12
F216.95840454101562
tp111
a(I628
I152
I615
I12
I16
I12
F216.99288940429688
tp112
a(I630
I152
I530
I12
I16
I12
F217.0100555419922
tp113
a(I634
I148
I452
I12
I16
I12
F217.04306030273438
tp114
a(I640
I150
I804
I12
I16
I12
F217.0770263671875
tp115
a(I644
I150
I706
I12
I16
I12
F217.1066131591797
tp116
a(I650
I150
I706
I12
I16
I12
F217.13818359375
tp117
a(I652
I148
I530
I12
I16
I12
F217.17562866210938
tp118
a(I16
I452
I615
I12
I16
I12
F217.2069091796875
tp119
a(I16
I450
I530
I12
I16
I12
F217.2373046875
tp120
a(I44
I20
I1017
I12
I16
I12
F217.27218627929688
tp121
a(I24
I56
I530
I12
I16
I12
F217.30104064941406
tp122
a(I44
I20
I1017
I12
I16
I12
F217.3334197998047
tp123
a(I632
I26
I530
I12
I16
I12
F217.3680419921875
tp124
a(I632
I26
I615
I12
I16
I12
F217.3788299560547
tp125
a(I16
I452
I615
I12
I16
I12
F217.43019104003906
tp126
a(I42
I20
I1134
I12
I16
I12
F217.46316528320312
tp127
a(I44
I20
I907
I12
I16
I12
F217.47776794433594
tp128
a(I124
I422
I530
I12
I16
I12
F217.50888061523438
tp129
a(I44
I20
I907
I12
I16
I12
F217.5438995361328
tp130
a(I632
I26
I530
I12
I16
I12
F217.57614135742188
tp131
a(I632
I26
I615
I12
I16
I12
F217.60498046875
tp132
a(I42
I20
I907
I12
I16
I12
F217.644775390625
tp133
a(I634
I24
I530
I12
I16
I12
F217.6720733642578
tp134
a(I654
I144
I615
I12
I16
I12
F217.7062530517578
tp135
a(I656
I144
I706
I12
I16
I12
F217.7400665283203
tp136
a(I632
I26
I615
I12
I16
I12
F217.77146911621094
tp137
a(I650
I142
I706
I12
I16
I12
F217.8002471923828
tp138
a(I646
I142
I530
I12
I16
I12
F217.83489990234375
tp139
a(I642
I138
I615
I12
I16
I12
F217.8981475830078
tp140
a(I638
I138
I452
I12
I16
I12
F217.92884826660156
tp141
a(I640
I138
I615
I12
I16
I12
F217.9485626220703
tp142
a(I638
I140
I615
I12
I16
I12
F217.9773406982422
tp143
a(I636
I138
I530
I12
I16
I12
F218.01730346679688
tp144
a(I632
I138
I530
I12
I16
I12
F218.04580688476562
tp145
a(I634
I136
I615
I12
I16
I12
F218.07565307617188
tp146
a(I632
I140
I530
I12
I16
I12
F218.11160278320312
tp147
a(I634
I138
I706
I12
I16
I12
F218.14447021484375
tp148
a(I632
I136
I706
I12
I16
I12
F218.17405700683594
tp149
a(I630
I136
I706
I12
I16
I12
F218.24342346191406
tp150
a(I628
I136
I706
I12
I16
I12
F218.301513671875
tp151
a(I628
I134
I804
I12
I16
I12
F218.3680419921875
tp152
a(I626
I136
I706
I12
I16
I12
F218.38719177246094
tp153
a(I626
I134
I530
I12
I16
I12
F218.41676330566406
tp154
a(I624
I136
I706
I12
I16
I12
F218.4469451904297
tp155
a(I626
I136
I706
I12
I16
I12
F218.48138427734375
tp156
a(I626
I136
I530
I12
I16
I12
F218.51625061035156
tp157
a(I624
I136
I706
I12
I16
I12
F218.54660034179688
tp158
a(I626
I136
I452
I12
I16
I12
F218.57948303222656
tp159
a(I622
I136
I615
I12
I16
I12
F218.61709594726562
tp160
a(I622
I138
I530
I12
I16
I12
F218.6427459716797
tp161
a(I622
I138
I615
I12
I16
I12
F218.67491149902344
tp162
a(I622
I134
I530
I12
I16
I12
F218.7068328857422
tp163
a(I624
I132
I530
I12
I16
I12
F218.73851013183594
tp164
a(I624
I136
I530
I12
I16
I12
F218.77053833007812
tp165
a(I620
I138
I615
I12
I16
I12
F218.79043579101562
tp166
a(I622
I136
I530
I12
I16
I12
F218.82151794433594
tp167
a(I620
I138
I530
I12
I16
I12
F218.8556365966797
tp168
a(I622
I138
I615
I12
I16
I12
F218.89207458496094
tp169
a(I620
I136
I530
I12
I16
I12
F218.91836547851562
tp170
a(I44
I20
I1017
I12
I16
I12
F218.9508819580078
tp171
a(I44
I20
I907
I12
I16
I12
F218.99024963378906
tp172
a(I622
I138
I615
I12
I16
I12
F219.01495361328125
tp173
a(I622
I138
I530
I12
I16
I12
F219.0494384765625
tp174
a(I620
I136
I530
I12
I16
I12
F219.0830841064453
tp175
a(I620
I136
I452
I12
I16
I12
F219.11256408691406
tp176
a(I620
I136
I530
I12
I16
I12
F219.1455841064453
tp177
a(I622
I138
I530
I12
I16
I12
F219.19223022460938
tp178
a(I622
I136
I615
I12
I16
I12
F219.2417755126953
tp179
a(I620
I138
I530
I12
I16
I12
F219.29029846191406
tp180
a(I622
I136
I530
I12
I16
I12
F219.36012268066406
tp181
a(I620
I140
I530
I12
I16
I12
F219.38851928710938
tp182
a(I620
I138
I452
I12
I16
I12
F219.41729736328125
tp183
a(I620
I140
I530
I12
I16
I12
F219.45510864257812
tp184
a(I620
I142
I530
I12
I16
I12
F219.48426818847656
tp185
a(I620
I140
I530
I12
I16
I12
F219.51473999023438
tp186
a(I620
I142
I615
I12
I16
I12
F219.54867553710938
tp187
a(I620
I142
I530
I12
I16
I12
F219.58444213867188
tp188
a(I620
I138
I615
I12
I16
I12
F219.6143798828125
tp189
a(I618
I138
I452
I12
I16
I12
F219.64718627929688
tp190
a(I620
I138
I530
I12
I16
I12
F219.66366577148438
tp191
a(I618
I138
I615
I12
I16
I12
F219.69366455078125
tp192
a(I622
I140
I452
I12
I16
I12
F219.7407989501953
tp193
a(I620
I140
I530
I12
I16
I12
F219.7600555419922
tp194
a(I618
I142
I452
I12
I16
I12
F219.82858276367188
tp195
a.