(lp0
(I120
I136
I706
I12
I16
I12
F12.188522338867188
tp1
a(I120
I134
I615
I12
I16
I12
F12.218169212341309
tp2
a(I118
I136
I804
I12
I16
I12
F12.23730182647705
tp3
a(I120
I134
I615
I12
I16
I12
F12.265876770019531
tp4
a(I120
I136
I706
I12
I16
I12
F12.29822826385498
tp5
a(I122
I134
I615
I12
I16
I12
F12.412717819213867
tp6
a(I120
I136
I706
I12
I16
I12
F12.444978713989258
tp7
a(I120
I134
I615
I12
I16
I12
F12.481006622314453
tp8
a(I120
I136
I706
I12
I16
I12
F12.51042366027832
tp9
a(I120
I134
I615
I12
I16
I12
F12.540678024291992
tp10
a(I122
I136
I530
I12
I16
I12
F12.57663631439209
tp11
a(I120
I134
I615
I12
I16
I12
F12.610248565673828
tp12
a(I118
I136
I804
I12
I16
I12
F12.709491729736328
tp13
a(I120
I134
I706
I12
I16
I12
F12.735651016235352
tp14
a(I120
I136
I706
I12
I16
I12
F12.783356666564941
tp15
a(I118
I136
I804
I12
I16
I12
F12.833327293395996
tp16
a(I122
I134
I615
I12
I16
I12
F12.852989196777344
tp17
a(I120
I134
I615
I12
I16
I12
F12.883209228515625
tp18
a(I122
I134
I615
I12
I16
I12
F12.913909912109375
tp19
a(I120
I136
I706
I12
I16
I12
F12.945711135864258
tp20
a(I120
I134
I615
I12
I16
I12
F12.982597351074219
tp21
a(I122
I134
I615
I12
I16
I12
F13.010337829589844
tp22
a(I120
I134
I706
I12
I16
I12
F13.041967391967773
tp23
a(I118
I136
I804
I12
I16
I12
F13.079937934875488
tp24
a(I120
I134
I615
I12
I16
I12
F13.107654571533203
tp25
a(I120
I136
I706
I12
I16
I12
F13.203935623168945
tp26
a(I120
I134
I615
I12
I16
I12
F13.235137939453125
tp27
a(I120
I136
I706
I12
I16
I12
F13.271073341369629
tp28
a(I120
I134
I615
I12
I16
I12
F13.319066047668457
tp29
a(I118
I136
I804
I12
I16
I12
F13.354848861694336
tp30
a(I122
I136
I615
I12
I16
I12
F13.38353157043457
tp31
a(I120
I136
I706
I12
I16
I12
F13.413259506225586
tp32
a(I120
I134
I615
I12
I16
I12
F13.545919418334961
tp33
a(I120
I136
I706
I12
I16
I12
F13.560308456420898
tp34
a(I120
I134
I615
I12
I16
I12
F13.609067916870117
tp35
a(I120
I136
I706
I12
I16
I12
F13.643837928771973
tp36
a(I124
I136
I530
I12
I16
I12
F13.754743576049805
tp37
a(I122
I136
I615
I12
I16
I12
F13.78596305847168
tp38
a(I120
I134
I706
I12
I16
I12
F13.82465934753418
tp39
a(I120
I134
I530
I12
I16
I12
F13.851171493530273
tp40
a(I120
I134
I615
I12
I16
I12
F13.88138198852539
tp41
a(I120
I136
I706
I12
I16
I12
F13.950448036193848
tp42
a(I118
I136
I804
I12
I16
I12
F13.981308937072754
tp43
a(I120
I134
I706
I12
I16
I12
F14.014741897583008
tp44
a(I122
I134
I530
I12
I16
I12
F14.029289245605469
tp45
a(I122
I136
I530
I12
I16
I12
F14.078859329223633
tp46
a(I120
I134
I615
I12
I16
I12
F14.110215187072754
tp47
a(I120
I136
I706
I12
I16
I12
F14.12727165222168
tp48
a(I120
I134
I615
I12
I16
I12
F14.205245018005371
tp49
a(I118
I136
I804
I12
I16
I12
F14.230215072631836
tp50
a(I120
I136
I706
I12
I16
I12
F14.258270263671875
tp51
a(I122
I134
I530
I12
I16
I12
F14.293127059936523
tp52
a(I120
I136
I706
I12
I16
I12
F14.323577880859375
tp53
a(I122
I134
I615
I12
I16
I12
F14.353802680969238
tp54
a(I120
I136
I706
I12
I16
I12
F14.38698959350586
tp55
a(I120
I134
I706
I12
I16
I12
F14.423932075500488
tp56
a(I122
I136
I530
I12
I16
I12
F14.45132064819336
tp57
a(I120
I134
I615
I12
I16
I12
F14.482929229736328
tp58
a(I120
I136
I706
I12
I16
I12
F14.498897552490234
tp59
a(I120
I134
I615
I12
I16
I12
F14.547952651977539
tp60
a(I120
I134
I706
I12
I16
I12
F14.628751754760742
tp61
a(I120
I138
I530
I12
I16
I12
F14.660701751708984
tp62
a(I120
I134
I615
I12
I16
I12
F14.694154739379883
tp63
a(I122
I134
I615
I12
I16
I12
F14.725685119628906
tp64
a(I120
I136
I706
I12
I16
I12
F14.758071899414062
tp65
a(I120
I134
I615
I12
I16
I12
F14.794137954711914
tp66
a(I120
I136
I706
I12
I16
I12
F14.821101188659668
tp67
a(I120
I134
I615
I12
I16
I12
F14.852550506591797
tp68
a(I120
I134
I530
I12
I16
I12
F14.893179893493652
tp69
a(I120
I134
I706
I12
I16
I12
F14.91967487335205
tp70
a(I120
I134
I615
I12
I16
I12
F14.949358940124512
tp71
a(I120
I136
I706
I12
I16
I12
F14.983558654785156
tp72
a(I122
I136
I530
I12
I16
I12
F15.04766845703125
tp73
a(I118
I136
I804
I12
I16
I12
F15.067606925964355
tp74
a(I120
I136
I706
I12
I16
I12
F15.097572326660156
tp75
a(I120
I134
I615
I12
I16
I12
F15.167075157165527
tp76
a(I120
I136
I706
I12
I16
I12
F15.226921081542969
tp77
a(I122
I134
I615
I12
I16
I12
F15.292396545410156
tp78
a(I120
I134
I615
I12
I16
I12
F15.32691478729248
tp79
a(I122
I134
I615
I12
I16
I12
F15.359987258911133
tp80
a(I120
I136
I706
I12
I16
I12
F15.370832443237305
tp81
a(I120
I134
I615
I12
I16
I12
F15.421561241149902
tp82
a(I120
I136
I706
I12
I16
I12
F15.43952751159668
tp83
a(I120
I134
I615
I12
I16
I12
F15.506199836730957
tp84
a(I118
I136
I804
I12
I16
I12
F15.51957893371582
tp85
a(I120
I136
I706
I12
I16
I12
F15.5518798828125
tp86
a(I120
I134
I615
I12
I16
I12
F15.587472915649414
tp87
a(I120
I138
I530
I12
I16
I12
F15.615459442138672
tp88
a(I118
I136
I804
I12
I16
I12
F15.645280838012695
tp89
a(I120
I134
I615
I12
I16
I12
F15.685647964477539
tp90
a(I120
I136
I706
I12
I16
I12
F15.712631225585938
tp91
a(I120
I134
I615
I12
I16
I12
F15.77988052368164
tp92
a(I122
I134
I615
I12
I16
I12
F15.81270694732666
tp93
a(I120
I136
I706
I12
I16
I12
F15.842008590698242
tp94
a(I120
I134
I706
I12
I16
I12
F15.939663887023926
tp95
a(I120
I136
I706
I12
I16
I12
F15.96938419342041
tp96
a(I118
I134
I530
I12
I16
I12
F15.987712860107422
tp97
a(I124
I134
I530
I12
I16
I12
F16.01704216003418
tp98
a(I120
I134
I615
I12
I16
I12
F16.05527687072754
tp99
a(I118
I136
I530
I12
I16
I12
F16.114521026611328
tp100
a(I122
I134
I615
I12
I16
I12
F16.151174545288086
tp101
a(I118
I136
I804
I12
I16
I12
F16.184417724609375
tp102
a(I120
I136
I706
I12
I16
I12
F16.213638305664062
tp103
a(I120
I134
I615
I12
I16
I12
F16.249910354614258
tp104
a(I122
I136
I530
I12
I16
I12
F16.31072998046875
tp105
a(I118
I136
I804
I12
I16
I12
F16.34160614013672
tp106
a(I122
I136
I804
I12
I16
I12
F16.408456802368164
tp107
a(I120
I140
I530
I12
I16
I12
F16.424318313598633
tp108
a(I120
I136
I706
I12
I16
I12
F16.4576473236084
tp109
a(I118
I136
I804
I12
I16
I12
F16.487735748291016
tp110
a(I122
I134
I530
I12
I16
I12
F16.523374557495117
tp111
a(I120
I134
I530
I12
I16
I12
F16.55770492553711
tp112
a(I122
I134
I530
I12
I16
I12
F16.586336135864258
tp113
a(I120
I136
I706
I12
I16
I12
F16.621036529541016
tp114
a(I122
I136
I530
I12
I16
I12
F16.6564998626709
tp115
a(I120
I136
I706
I12
I16
I12
F16.683317184448242
tp116
a(I120
I134
I615
I12
I16
I12
F16.71354103088379
tp117
a(I120
I136
I706
I12
I16
I12
F16.731983184814453
tp118
a.